00000000  8CC8              mov ax,cs
00000002  8ED8              mov ds,ax
00000004  8EC0              mov es,ax
00000006  EA0B000010        jmp word 0x1000:0xb
0000000B  6655              push ebp
0000000D  6689E5            mov ebp,esp
00000010  66E8D5110000      call dword 0x11eb
00000016  66A1AC3D          mov eax,[0x3dac]
0000001A  6650              push eax
0000001C  6668CC310000      push dword 0x31cc
00000022  66E8B30E0000      call dword 0xedb
00000028  6683C408          add esp,byte +0x8
0000002C  66E824000000      call dword 0x56
00000032  66E88A1C0000      call dword 0x1cc2
00000038  666A00            o32 push byte +0x0
0000003B  6668D0310000      push dword 0x31d0
00000041  66E878170000      call dword 0x17bf
00000047  6683C408          add esp,byte +0x8
0000004B  66E8FE0A0000      call dword 0xb4f
00000051  90                nop
00000052  66C9              o32 leave
00000054  66C3              o32 ret
00000056  6655              push ebp
00000058  6689E5            mov ebp,esp
0000005B  66687A0A0000      push dword 0xa7a
00000061  666A09            o32 push byte +0x9
00000064  66E8B6090000      call dword 0xa20
0000006A  6683C408          add esp,byte +0x8
0000006E  6668F60A0000      push dword 0xaf6
00000074  666A1C            o32 push byte +0x1c
00000077  66E8A3090000      call dword 0xa20
0000007D  6683C408          add esp,byte +0x8
00000081  6668150B0000      push dword 0xb15
00000087  666A71            o32 push byte +0x71
0000008A  66E890090000      call dword 0xa20
00000090  6683C408          add esp,byte +0x8
00000094  6668340B0000      push dword 0xb34
0000009A  666A72            o32 push byte +0x72
0000009D  66E87D090000      call dword 0xa20
000000A3  6683C408          add esp,byte +0x8
000000A7  6668B80A0000      push dword 0xab8
000000AD  666A73            o32 push byte +0x73
000000B0  66E86A090000      call dword 0xa20
000000B6  6683C408          add esp,byte +0x8
000000BA  6668990A0000      push dword 0xa99
000000C0  666A74            o32 push byte +0x74
000000C3  66E857090000      call dword 0xa20
000000C9  6683C408          add esp,byte +0x8
000000CD  6668D70A0000      push dword 0xad7
000000D3  666A75            o32 push byte +0x75
000000D6  66E844090000      call dword 0xa20
000000DC  6683C408          add esp,byte +0x8
000000E0  90                nop
000000E1  66C9              o32 leave
000000E3  66C3              o32 ret
000000E5  6655              push ebp
000000E7  6689E5            mov ebp,esp
000000EA  666800020000      push dword 0x200
000000F0  6668D7310000      push dword 0x31d7
000000F6  66E8DF0D0000      call dword 0xedb
000000FC  6683C408          add esp,byte +0x8
00000100  666A20            o32 push byte +0x20
00000103  6668F2310000      push dword 0x31f2
00000109  66E8CC0D0000      call dword 0xedb
0000010F  6683C408          add esp,byte +0x8
00000113  666800020000      push dword 0x200
00000119  66680C320000      push dword 0x320c
0000011F  66E8B60D0000      call dword 0xedb
00000125  6683C408          add esp,byte +0x8
00000129  666800020000      push dword 0x200
0000012F  666822320000      push dword 0x3222
00000135  66E8A00D0000      call dword 0xedb
0000013B  6683C408          add esp,byte +0x8
0000013F  666800120000      push dword 0x1200
00000145  66683B320000      push dword 0x323b
0000014B  66E88A0D0000      call dword 0xedb
00000151  6683C408          add esp,byte +0x8
00000155  66684E320000      push dword 0x324e
0000015B  66E87A0D0000      call dword 0xedb
00000161  6683C404          add esp,byte +0x4
00000165  90                nop
00000166  66C9              o32 leave
00000168  66C3              o32 ret
0000016A  6655              push ebp
0000016C  6689E5            mov ebp,esp
0000016F  660FB6067A3F      movzx eax,byte [0x3f7a]
00000175  3C01              cmp al,0x1
00000177  7F1B              jg 0x194
00000179  666A4F            o32 push byte +0x4f
0000017C  666A00            o32 push byte +0x0
0000017F  666A07            o32 push byte +0x7
00000182  6668C0000000      push dword 0xc0
00000188  66E8BF140000      call dword 0x164d
0000018E  6683C410          add esp,byte +0x10
00000192  EB63              jmp short 0x1f7
00000194  660FB6067A3F      movzx eax,byte [0x3f7a]
0000019A  3C03              cmp al,0x3
0000019C  7F1B              jg 0x1b9
0000019E  666A4F            o32 push byte +0x4f
000001A1  666A00            o32 push byte +0x0
000001A4  666A07            o32 push byte +0x7
000001A7  6668DA000000      push dword 0xda
000001AD  66E89A140000      call dword 0x164d
000001B3  6683C410          add esp,byte +0x10
000001B7  EB3E              jmp short 0x1f7
000001B9  660FB6067A3F      movzx eax,byte [0x3f7a]
000001BF  3C05              cmp al,0x5
000001C1  7F1B              jg 0x1de
000001C3  666A4F            o32 push byte +0x4f
000001C6  666A00            o32 push byte +0x0
000001C9  666A07            o32 push byte +0x7
000001CC  6668BF000000      push dword 0xbf
000001D2  66E875140000      call dword 0x164d
000001D8  6683C410          add esp,byte +0x10
000001DC  EB19              jmp short 0x1f7
000001DE  666A4F            o32 push byte +0x4f
000001E1  666A00            o32 push byte +0x0
000001E4  666A07            o32 push byte +0x7
000001E7  6668D9000000      push dword 0xd9
000001ED  66E85A140000      call dword 0x164d
000001F3  6683C410          add esp,byte +0x10
000001F7  660FB6067A3F      movzx eax,byte [0x3f7a]
000001FD  660FBEC0          movsx eax,al
00000201  67668D5001        lea edx,[eax+0x1]
00000206  6689D0            mov eax,edx
00000209  66C1F81F          sar eax,byte 0x1f
0000020D  66C1E81D          shr eax,byte 0x1d
00000211  6601C2            add edx,eax
00000214  6683E207          and edx,byte +0x7
00000218  6629C2            sub edx,eax
0000021B  6689D0            mov eax,edx
0000021E  A27A3F            mov [0x3f7a],al
00000221  90                nop
00000222  66C9              o32 leave
00000224  66C3              o32 ret
00000226  6655              push ebp
00000228  6689E5            mov ebp,esp
0000022B  6683EC04          sub esp,byte +0x4
0000022F  6766C745FC503200  mov dword [ebp-0x4],0x3250
         -00
00000238  660FB606B43D      movzx eax,byte [0x3db4]
0000023E  6683E801          sub eax,byte +0x1
00000242  A2B43D            mov [0x3db4],al
00000245  660FB606B43D      movzx eax,byte [0x3db4]
0000024B  84C0              test al,al
0000024D  7576              jnz 0x2c5
0000024F  660FB606B53D      movzx eax,byte [0x3db5]
00000255  6683C001          add eax,byte +0x1
00000259  6683E00F          and eax,byte +0xf
0000025D  A2B53D            mov [0x3db5],al
00000260  660FB606B53D      movzx eax,byte [0x3db5]
00000266  660FB6D0          movzx edx,al
0000026A  660FB6067B3F      movzx eax,byte [0x3f7b]
00000270  6689C1            mov ecx,eax
00000273  6683C101          add ecx,byte +0x1
00000277  880E7B3F          mov [0x3f7b],cl
0000027B  660FBEC8          movsx ecx,al
0000027F  67668B45FC        mov eax,[ebp-0x4]
00000284  6601C8            add eax,ecx
00000287  67660FB600        movzx eax,byte [eax]
0000028C  660FBEC0          movsx eax,al
00000290  666A4F            o32 push byte +0x4f
00000293  666A18            o32 push byte +0x18
00000296  6652              push edx
00000298  6650              push eax
0000029A  66E8AD130000      call dword 0x164d
000002A0  6683C410          add esp,byte +0x10
000002A4  660FB6067B3F      movzx eax,byte [0x3f7b]
000002AA  6689C2            mov edx,eax
000002AD  C0FA07            sar dl,byte 0x7
000002B0  C0EA06            shr dl,byte 0x6
000002B3  6601D0            add eax,edx
000002B6  6683E003          and eax,byte +0x3
000002BA  6629D0            sub eax,edx
000002BD  A27B3F            mov [0x3f7b],al
000002C0  C606B43D05        mov byte [0x3db4],0x5
000002C5  90                nop
000002C6  66C9              o32 leave
000002C8  66C3              o32 ret
000002CA  6655              push ebp
000002CC  6689E5            mov ebp,esp
000002CF  66C7067C3F000000  mov dword [0x3f7c],0x0
         -00
000002D8  EB2B              jmp short 0x305
000002DA  66A17C3F          mov eax,[0x3f7c]
000002DE  6650              push eax
000002E0  6668003F0000      push dword 0x3f00
000002E6  66E88E130000      call dword 0x167a
000002EC  6683C408          add esp,byte +0x8
000002F0  66A1543F          mov eax,[0x3f54]
000002F4  6685C0            test eax,eax
000002F7  7418              jz 0x311
000002F9  66A17C3F          mov eax,[0x3f7c]
000002FD  6683C001          add eax,byte +0x1
00000301  66A37C3F          mov [0x3f7c],eax
00000305  66A17C3F          mov eax,[0x3f7c]
00000309  6683F807          cmp eax,byte +0x7
0000030D  7ECB              jng 0x2da
0000030F  EB01              jmp short 0x312
00000311  90                nop
00000312  66A17C3F          mov eax,[0x3f7c]
00000316  6683F807          cmp eax,byte +0x7
0000031A  7E09              jng 0x325
0000031C  66B8FFFFFFFF      mov eax,0xffffffff
00000322  E9DF00            jmp word 0x404
00000325  668926203F        mov [0x3f20],esp
0000032A  66893E143F        mov [0x3f14],edi
0000032F  668936183F        mov [0x3f18],esi
00000334  66892E1C3F        mov [0x3f1c],ebp
00000339  66A3303F          mov [0x3f30],eax
0000033D  66891E243F        mov [0x3f24],ebx
00000342  66890E2C3F        mov [0x3f2c],ecx
00000347  668916283F        mov [0x3f28],edx
0000034C  8C16003F          mov [0x3f00],ss
00000350  8C060C3F          mov [0x3f0c],es
00000354  8C26083F          mov [0x3f08],fs
00000358  8C2E043F          mov [0x3f04],gs
0000035C  8C0E383F          mov [0x3f38],cs
00000360  8C1E103F          mov [0x3f10],ds
00000364  66E87C130000      call dword 0x16e6
0000036A  66A3503F          mov [0x3f50],eax
0000036E  66A1603F          mov eax,[0x3f60]
00000372  66A3583F          mov [0x3f58],eax
00000376  66C7065C3F000000  mov dword [0x3f5c],0x0
         -00
0000037F  66C706343F040400  mov dword [0x3f34],0x404
         -00
00000388  66A1DC3E          mov eax,[0x3edc]
0000038C  66A33C3F          mov [0x3f3c],eax
00000390  66C706543F010000  mov dword [0x3f54],0x1
         -00
00000399  C606403F00        mov byte [0x3f40],0x0
0000039E  66C706303F000000  mov dword [0x3f30],0x0
         -00
000003A7  66A17C3F          mov eax,[0x3f7c]
000003AB  6683C008          add eax,byte +0x8
000003AF  66C1E00A          shl eax,byte 0xa
000003B3  66A3003F          mov [0x3f00],eax
000003B7  66A1203F          mov eax,[0x3f20]
000003BB  6683C002          add eax,byte +0x2
000003BF  66A3203F          mov [0x3f20],eax
000003C3  66A1003F          mov eax,[0x3f00]
000003C7  66C1E010          shl eax,byte 0x10
000003CB  6689C2            mov edx,eax
000003CE  66A1A03E          mov eax,[0x3ea0]
000003D2  66C1E010          shl eax,byte 0x10
000003D6  666800050000      push dword 0x500
000003DC  6652              push edx
000003DE  6650              push eax
000003E0  66E857130000      call dword 0x173d
000003E6  6683C40C          add esp,byte +0xc
000003EA  66A17C3F          mov eax,[0x3f7c]
000003EE  6650              push eax
000003F0  6668003F0000      push dword 0x3f00
000003F6  66E8B4120000      call dword 0x16b0
000003FC  6683C408          add esp,byte +0x8
00000400  66A1503F          mov eax,[0x3f50]
00000404  6689C0            mov eax,eax
00000407  90                nop
00000408  66C9              o32 leave
0000040A  66C3              o32 ret
0000040C  6655              push ebp
0000040E  6689E5            mov ebp,esp
00000411  66A1603F          mov eax,[0x3f60]
00000415  6650              push eax
00000417  6668A03E0000      push dword 0x3ea0
0000041D  66E857120000      call dword 0x167a
00000423  6683C408          add esp,byte +0x8
00000427  66C706FC3E010000  mov dword [0x3efc],0x1
         -00
00000430  66A1603F          mov eax,[0x3f60]
00000434  6650              push eax
00000436  6668A03E0000      push dword 0x3ea0
0000043C  66E86E120000      call dword 0x16b0
00000442  6683C408          add esp,byte +0x8
00000446  90                nop
00000447  66C9              o32 leave
00000449  66C3              o32 ret
0000044B  6655              push ebp
0000044D  6689E5            mov ebp,esp
00000450  6683EC04          sub esp,byte +0x4
00000454  67668B4508        mov eax,[ebp+0x8]
00000459  678845FC          mov [ebp-0x4],al
0000045D  66C706F43E000000  mov dword [0x3ef4],0x0
         -00
00000466  66A1603F          mov eax,[0x3f60]
0000046A  6650              push eax
0000046C  6668A03E0000      push dword 0x3ea0
00000472  66E838120000      call dword 0x16b0
00000478  6683C408          add esp,byte +0x8
0000047C  66A1F83E          mov eax,[0x3ef8]
00000480  6685C0            test eax,eax
00000483  7849              js 0x4ce
00000485  66A1F83E          mov eax,[0x3ef8]
00000489  6683F807          cmp eax,byte +0x7
0000048D  7F3F              jg 0x4ce
0000048F  66A1F83E          mov eax,[0x3ef8]
00000493  6650              push eax
00000495  6668003F0000      push dword 0x3f00
0000049B  66E8D9110000      call dword 0x167a
000004A1  6683C408          add esp,byte +0x8
000004A5  66C7065C3F000000  mov dword [0x3f5c],0x0
         -00
000004AE  67660FBE45FC      movsx eax,byte [ebp-0x4]
000004B4  66A3303F          mov [0x3f30],eax
000004B8  66A1F83E          mov eax,[0x3ef8]
000004BC  6650              push eax
000004BE  6668003F0000      push dword 0x3f00
000004C4  66E8E6110000      call dword 0x16b0
000004CA  6683C408          add esp,byte +0x8
000004CE  90                nop
000004CF  66C9              o32 leave
000004D1  66C3              o32 ret
000004D3  6655              push ebp
000004D5  6689E5            mov ebp,esp
000004D8  6683EC04          sub esp,byte +0x4
000004DC  66A3D03E          mov [0x3ed0],eax
000004E0  66891EC43E        mov [0x3ec4],ebx
000004E5  66890ECC3E        mov [0x3ecc],ecx
000004EA  668916C83E        mov [0x3ec8],edx
000004EF  66A1883F          mov eax,[0x3f88]
000004F3  6685C0            test eax,eax
000004F6  7F0F              jg 0x507
000004F8  66A1883F          mov eax,[0x3f88]
000004FC  6683C001          add eax,byte +0x1
00000500  66A3883F          mov [0x3f88],eax
00000504  E9E801            jmp word 0x6ef
00000507  66C706883F000000  mov dword [0x3f88],0x0
         -00
00000510  66C7068C3F000000  mov dword [0x3f8c],0x0
         -00
00000519  EB18              jmp short 0x533
0000051B  66A18C3F          mov eax,[0x3f8c]
0000051F  678F8400643F0000  pop word [dword eax+eax+0x3f64]
00000527  66A18C3F          mov eax,[0x3f8c]
0000052B  6683C001          add eax,byte +0x1
0000052F  66A38C3F          mov [0x3f8c],eax
00000533  66A18C3F          mov eax,[0x3f8c]
00000537  6683F809          cmp eax,byte +0x9
0000053B  7EDE              jng 0x51b
0000053D  66A1603F          mov eax,[0x3f60]
00000541  6650              push eax
00000543  6668A03E0000      push dword 0x3ea0
00000549  66E82B110000      call dword 0x167a
0000054F  6683C408          add esp,byte +0x8
00000553  66A1F43E          mov eax,[0x3ef4]
00000557  6683F802          cmp eax,byte +0x2
0000055B  0F859400          jnz word 0x5f3
0000055F  66893EB43E        mov [0x3eb4],edi
00000564  668936B83E        mov [0x3eb8],esi
00000569  66892EBC3E        mov [0x3ebc],ebp
0000056E  668926C03E        mov [0x3ec0],esp
00000573  8C16A03E          mov [0x3ea0],ss
00000577  8C06AC3E          mov [0x3eac],es
0000057B  8C26A83E          mov [0x3ea8],fs
0000057F  8C2EA43E          mov [0x3ea4],gs
00000583  66C706F43E010000  mov dword [0x3ef4],0x1
         -00
0000058C  660FB706703F      movzx eax,word [0x3f70]
00000592  660FB7C0          movzx eax,ax
00000596  66A3B03E          mov [0x3eb0],eax
0000059A  660FB706723F      movzx eax,word [0x3f72]
000005A0  660FB7C0          movzx eax,ax
000005A4  66A3D43E          mov [0x3ed4],eax
000005A8  660FB706743F      movzx eax,word [0x3f74]
000005AE  660FB7C0          movzx eax,ax
000005B2  66A3D83E          mov [0x3ed8],eax
000005B6  660FB706763F      movzx eax,word [0x3f76]
000005BC  660FB7C0          movzx eax,ax
000005C0  66A3DC3E          mov [0x3edc],eax
000005C4  66A1D83E          mov eax,[0x3ed8]
000005C8  66C1E010          shl eax,byte 0x10
000005CC  6689C2            mov edx,eax
000005CF  66A1D43E          mov eax,[0x3ed4]
000005D3  6609D0            or eax,edx
000005D6  67668945FC        mov [ebp-0x4],eax
000005DB  66A1603F          mov eax,[0x3f60]
000005DF  6650              push eax
000005E1  6668A03E0000      push dword 0x3ea0
000005E7  66E8C3100000      call dword 0x16b0
000005ED  6683C408          add esp,byte +0x8
000005F1  EB03              jmp short 0x5f6
000005F3  83C402            add sp,byte +0x2
000005F6  66A1603F          mov eax,[0x3f60]
000005FA  67668D5001        lea edx,[eax+0x1]
000005FF  6689D0            mov eax,edx
00000602  66C1F81F          sar eax,byte 0x1f
00000606  66C1E81D          shr eax,byte 0x1d
0000060A  6601C2            add edx,eax
0000060D  6683E207          and edx,byte +0x7
00000611  6629C2            sub edx,eax
00000614  6689D0            mov eax,edx
00000617  66A3603F          mov [0x3f60],eax
0000061B  66A1603F          mov eax,[0x3f60]
0000061F  6650              push eax
00000621  6668A03E0000      push dword 0x3ea0
00000627  66E84D100000      call dword 0x167a
0000062D  6683C408          add esp,byte +0x8
00000631  66A1F43E          mov eax,[0x3ef4]
00000635  6683F801          cmp eax,byte +0x1
00000639  75BB              jnz 0x5f6
0000063B  66A1FC3E          mov eax,[0x3efc]
0000063F  6685C0            test eax,eax
00000642  7402              jz 0x646
00000644  EBB0              jmp short 0x5f6
00000646  90                nop
00000647  66C706F43E020000  mov dword [0x3ef4],0x2
         -00
00000650  66A1603F          mov eax,[0x3f60]
00000654  6650              push eax
00000656  6668A03E0000      push dword 0x3ea0
0000065C  66E84E100000      call dword 0x16b0
00000662  6683C408          add esp,byte +0x8
00000666  66FF36DC3E        push dword [0x3edc]
0000066B  669D              popfd
0000066D  668B3EB43E        mov edi,[0x3eb4]
00000672  668B36B83E        mov esi,[0x3eb8]
00000677  668B2EBC3E        mov ebp,[0x3ebc]
0000067C  668B26C03E        mov esp,[0x3ec0]
00000681  8E16A03E          mov ss,[0x3ea0]
00000685  8E06AC3E          mov es,[0x3eac]
00000689  8E26A83E          mov fs,[0x3ea8]
0000068D  8E2EA43E          mov gs,[0x3ea4]
00000691  66A1B03E          mov eax,[0x3eb0]
00000695  A3703F            mov [0x3f70],ax
00000698  66A1D43E          mov eax,[0x3ed4]
0000069C  A3723F            mov [0x3f72],ax
0000069F  66A1D83E          mov eax,[0x3ed8]
000006A3  A3743F            mov [0x3f74],ax
000006A6  66A1DC3E          mov eax,[0x3edc]
000006AA  A3763F            mov [0x3f76],ax
000006AD  66C7068C3F090000  mov dword [0x3f8c],0x9
         -00
000006B6  EB18              jmp short 0x6d0
000006B8  66A18C3F          mov eax,[0x3f8c]
000006BC  67FFB400643F0000  push word [dword eax+eax+0x3f64]
000006C4  66A18C3F          mov eax,[0x3f8c]
000006C8  6683E801          sub eax,byte +0x1
000006CC  66A38C3F          mov [0x3f8c],eax
000006D0  66A18C3F          mov eax,[0x3f8c]
000006D4  6683F803          cmp eax,byte +0x3
000006D8  7FDE              jg 0x6b8
000006DA  66A1D03E          mov eax,[0x3ed0]
000006DE  668B1EC43E        mov ebx,[0x3ec4]
000006E3  668B0ECC3E        mov ecx,[0x3ecc]
000006E8  668B16C83E        mov edx,[0x3ec8]
000006ED  66C3              o32 ret
000006EF  66C9              o32 leave
000006F1  66C3              o32 ret
000006F3  6655              push ebp
000006F5  6689E5            mov ebp,esp
000006F8  6683EC04          sub esp,byte +0x4
000006FC  66A3D03E          mov [0x3ed0],eax
00000700  66891EC43E        mov [0x3ec4],ebx
00000705  66890ECC3E        mov [0x3ecc],ecx
0000070A  668916C83E        mov [0x3ec8],edx
0000070F  66A1903F          mov eax,[0x3f90]
00000713  6685C0            test eax,eax
00000716  7F0C              jg 0x724
00000718  66A1903F          mov eax,[0x3f90]
0000071C  6683C001          add eax,byte +0x1
00000720  66A3903F          mov [0x3f90],eax
00000724  66C706903F000000  mov dword [0x3f90],0x0
         -00
0000072D  66C706943F000000  mov dword [0x3f94],0x0
         -00
00000736  EB18              jmp short 0x750
00000738  66A1943F          mov eax,[0x3f94]
0000073C  678F8400643F0000  pop word [dword eax+eax+0x3f64]
00000744  66A1943F          mov eax,[0x3f94]
00000748  6683C001          add eax,byte +0x1
0000074C  66A3943F          mov [0x3f94],eax
00000750  66A1943F          mov eax,[0x3f94]
00000754  6683F809          cmp eax,byte +0x9
00000758  7EDE              jng 0x738
0000075A  66A1603F          mov eax,[0x3f60]
0000075E  6650              push eax
00000760  6668A03E0000      push dword 0x3ea0
00000766  66E80E0F0000      call dword 0x167a
0000076C  6683C408          add esp,byte +0x8
00000770  66A1F43E          mov eax,[0x3ef4]
00000774  6683F802          cmp eax,byte +0x2
00000778  0F859400          jnz word 0x810
0000077C  66893EB43E        mov [0x3eb4],edi
00000781  668936B83E        mov [0x3eb8],esi
00000786  66892EBC3E        mov [0x3ebc],ebp
0000078B  668926C03E        mov [0x3ec0],esp
00000790  8C16A03E          mov [0x3ea0],ss
00000794  8C06AC3E          mov [0x3eac],es
00000798  8C26A83E          mov [0x3ea8],fs
0000079C  8C2EA43E          mov [0x3ea4],gs
000007A0  66C706F43E010000  mov dword [0x3ef4],0x1
         -00
000007A9  660FB706703F      movzx eax,word [0x3f70]
000007AF  660FB7C0          movzx eax,ax
000007B3  66A3B03E          mov [0x3eb0],eax
000007B7  660FB706723F      movzx eax,word [0x3f72]
000007BD  660FB7C0          movzx eax,ax
000007C1  66A3D43E          mov [0x3ed4],eax
000007C5  660FB706743F      movzx eax,word [0x3f74]
000007CB  660FB7C0          movzx eax,ax
000007CF  66A3D83E          mov [0x3ed8],eax
000007D3  660FB706763F      movzx eax,word [0x3f76]
000007D9  660FB7C0          movzx eax,ax
000007DD  66A3DC3E          mov [0x3edc],eax
000007E1  66A1D83E          mov eax,[0x3ed8]
000007E5  66C1E010          shl eax,byte 0x10
000007E9  6689C2            mov edx,eax
000007EC  66A1D43E          mov eax,[0x3ed4]
000007F0  6609D0            or eax,edx
000007F3  67668945FC        mov [ebp-0x4],eax
000007F8  66A1603F          mov eax,[0x3f60]
000007FC  6650              push eax
000007FE  6668A03E0000      push dword 0x3ea0
00000804  66E8A60E0000      call dword 0x16b0
0000080A  6683C408          add esp,byte +0x8
0000080E  EB03              jmp short 0x813
00000810  83C402            add sp,byte +0x2
00000813  66A1603F          mov eax,[0x3f60]
00000817  67668D5001        lea edx,[eax+0x1]
0000081C  6689D0            mov eax,edx
0000081F  66C1F81F          sar eax,byte 0x1f
00000823  66C1E81D          shr eax,byte 0x1d
00000827  6601C2            add edx,eax
0000082A  6683E207          and edx,byte +0x7
0000082E  6629C2            sub edx,eax
00000831  6689D0            mov eax,edx
00000834  66A3603F          mov [0x3f60],eax
00000838  66A1603F          mov eax,[0x3f60]
0000083C  6650              push eax
0000083E  6668A03E0000      push dword 0x3ea0
00000844  66E8300E0000      call dword 0x167a
0000084A  6683C408          add esp,byte +0x8
0000084E  66A1F43E          mov eax,[0x3ef4]
00000852  6683F801          cmp eax,byte +0x1
00000856  75BB              jnz 0x813
00000858  66A1FC3E          mov eax,[0x3efc]
0000085C  6685C0            test eax,eax
0000085F  7402              jz 0x863
00000861  EBB0              jmp short 0x813
00000863  90                nop
00000864  66C706F43E020000  mov dword [0x3ef4],0x2
         -00
0000086D  66A1603F          mov eax,[0x3f60]
00000871  6650              push eax
00000873  6668A03E0000      push dword 0x3ea0
00000879  66E8310E0000      call dword 0x16b0
0000087F  6683C408          add esp,byte +0x8
00000883  66FF36DC3E        push dword [0x3edc]
00000888  669D              popfd
0000088A  668B3EB43E        mov edi,[0x3eb4]
0000088F  668B36B83E        mov esi,[0x3eb8]
00000894  668B2EBC3E        mov ebp,[0x3ebc]
00000899  668B26C03E        mov esp,[0x3ec0]
0000089E  8E16A03E          mov ss,[0x3ea0]
000008A2  8E06AC3E          mov es,[0x3eac]
000008A6  8E26A83E          mov fs,[0x3ea8]
000008AA  8E2EA43E          mov gs,[0x3ea4]
000008AE  66A1B03E          mov eax,[0x3eb0]
000008B2  A3703F            mov [0x3f70],ax
000008B5  66A1D43E          mov eax,[0x3ed4]
000008B9  A3723F            mov [0x3f72],ax
000008BC  66A1D83E          mov eax,[0x3ed8]
000008C0  A3743F            mov [0x3f74],ax
000008C3  66A1DC3E          mov eax,[0x3edc]
000008C7  A3763F            mov [0x3f76],ax
000008CA  66C706943F090000  mov dword [0x3f94],0x9
         -00
000008D3  EB18              jmp short 0x8ed
000008D5  66A1943F          mov eax,[0x3f94]
000008D9  67FFB400643F0000  push word [dword eax+eax+0x3f64]
000008E1  66A1943F          mov eax,[0x3f94]
000008E5  6683E801          sub eax,byte +0x1
000008E9  66A3943F          mov [0x3f94],eax
000008ED  66A1943F          mov eax,[0x3f94]
000008F1  6683F803          cmp eax,byte +0x3
000008F5  7FDE              jg 0x8d5
000008F7  66A1D03E          mov eax,[0x3ed0]
000008FB  668B1EC43E        mov ebx,[0x3ec4]
00000900  668B0ECC3E        mov ecx,[0x3ecc]
00000905  668B16C83E        mov edx,[0x3ec8]
0000090A  66C3              o32 ret
0000090C  90                nop
0000090D  66C9              o32 leave
0000090F  66C3              o32 ret
00000911  6655              push ebp
00000913  6689E5            mov ebp,esp
00000916  66A1603F          mov eax,[0x3f60]
0000091A  67668D5001        lea edx,[eax+0x1]
0000091F  6689D0            mov eax,edx
00000922  66C1F81F          sar eax,byte 0x1f
00000926  66C1E81D          shr eax,byte 0x1d
0000092A  6601C2            add edx,eax
0000092D  6683E207          and edx,byte +0x7
00000931  6629C2            sub edx,eax
00000934  6689D0            mov eax,edx
00000937  66A3603F          mov [0x3f60],eax
0000093B  66A1603F          mov eax,[0x3f60]
0000093F  6650              push eax
00000941  6668A03E0000      push dword 0x3ea0
00000947  66E82D0D0000      call dword 0x167a
0000094D  6683C408          add esp,byte +0x8
00000951  66A1F43E          mov eax,[0x3ef4]
00000955  6683F801          cmp eax,byte +0x1
00000959  75BB              jnz 0x916
0000095B  66A1FC3E          mov eax,[0x3efc]
0000095F  6685C0            test eax,eax
00000962  7402              jz 0x966
00000964  EBB0              jmp short 0x916
00000966  90                nop
00000967  66C706F43E020000  mov dword [0x3ef4],0x2
         -00
00000970  66A1603F          mov eax,[0x3f60]
00000974  6650              push eax
00000976  6668A03E0000      push dword 0x3ea0
0000097C  66E82E0D0000      call dword 0x16b0
00000982  6683C408          add esp,byte +0x8
00000986  66FF36DC3E        push dword [0x3edc]
0000098B  669D              popfd
0000098D  668B3EB43E        mov edi,[0x3eb4]
00000992  668B36B83E        mov esi,[0x3eb8]
00000997  668B2EBC3E        mov ebp,[0x3ebc]
0000099C  668B26C03E        mov esp,[0x3ec0]
000009A1  8E16A03E          mov ss,[0x3ea0]
000009A5  8E06AC3E          mov es,[0x3eac]
000009A9  8E26A83E          mov fs,[0x3ea8]
000009AD  8E2EA43E          mov gs,[0x3ea4]
000009B1  66A1DC3E          mov eax,[0x3edc]
000009B5  A3763F            mov [0x3f76],ax
000009B8  66A1D83E          mov eax,[0x3ed8]
000009BC  A3743F            mov [0x3f74],ax
000009BF  66A1D43E          mov eax,[0x3ed4]
000009C3  A3723F            mov [0x3f72],ax
000009C6  66A1B03E          mov eax,[0x3eb0]
000009CA  A3703F            mov [0x3f70],ax
000009CD  66C706983F090000  mov dword [0x3f98],0x9
         -00
000009D6  EB18              jmp short 0x9f0
000009D8  66A1983F          mov eax,[0x3f98]
000009DC  67FFB400643F0000  push word [dword eax+eax+0x3f64]
000009E4  66A1983F          mov eax,[0x3f98]
000009E8  6683E801          sub eax,byte +0x1
000009EC  66A3983F          mov [0x3f98],eax
000009F0  66A1983F          mov eax,[0x3f98]
000009F4  6683F803          cmp eax,byte +0x3
000009F8  7FDE              jg 0x9d8
000009FA  66A1D03E          mov eax,[0x3ed0]
000009FE  668B1EC43E        mov ebx,[0x3ec4]
00000A03  668B0ECC3E        mov ecx,[0x3ecc]
00000A08  668B16C83E        mov edx,[0x3ec8]
00000A0D  66C3              o32 ret
00000A0F  90                nop
00000A10  66C9              o32 leave
00000A12  66C3              o32 ret
00000A14  6690              xchg eax,eax
00000A16  6690              xchg eax,eax
00000A18  6690              xchg eax,eax
00000A1A  6690              xchg eax,eax
00000A1C  6690              xchg eax,eax
00000A1E  6690              xchg eax,eax
00000A20  C8000000          enter 0x0,0x0
00000A24  06                push es
00000A25  6653              push ebx
00000A27  6656              push esi
00000A29  8B4606            mov ax,[bp+0x6]
00000A2C  B90400            mov cx,0x4
00000A2F  F6E1              mul cl
00000A31  89C3              mov bx,ax
00000A33  31C0              xor ax,ax
00000A35  8EC0              mov es,ax
00000A37  668B760A          mov esi,[bp+0xa]
00000A3B  26668B07          mov eax,[es:bx]
00000A3F  2E668944FC        mov [cs:si-0x4],eax
00000A44  268937            mov [es:bx],si
00000A47  8CC8              mov ax,cs
00000A49  26894702          mov [es:bx+0x2],ax
00000A4D  665E              pop esi
00000A4F  665B              pop ebx
00000A51  07                pop es
00000A52  C9                leave
00000A53  6659              pop ecx
00000A55  FFE1              jmp cx
00000A57  0000              add [bx+si],al
00000A59  0000              add [bx+si],al
00000A5B  1E                push ds
00000A5C  8CC8              mov ax,cs
00000A5E  8ED8              mov ds,ax
00000A60  9C                pushfw
00000A61  FA                cli
00000A62  FF1E570A          call word far [0xa57]
00000A66  66E8BAF7FFFF      call dword 0x226
00000A6C  6650              push eax
00000A6E  B020              mov al,0x20
00000A70  E620              out 0x20,al
00000A72  6658              pop eax
00000A74  1F                pop ds
00000A75  CF                iretw
00000A76  0000              add [bx+si],al
00000A78  0000              add [bx+si],al
00000A7A  1E                push ds
00000A7B  8CC8              mov ax,cs
00000A7D  8ED8              mov ds,ax
00000A7F  9C                pushfw
00000A80  FA                cli
00000A81  FF1E760A          call word far [0xa76]
00000A85  66E8DFF6FFFF      call dword 0x16a
00000A8B  6650              push eax
00000A8D  B020              mov al,0x20
00000A8F  E620              out 0x20,al
00000A91  6658              pop eax
00000A93  1F                pop ds
00000A94  CF                iretw
00000A95  0000              add [bx+si],al
00000A97  0000              add [bx+si],al
00000A99  1E                push ds
00000A9A  8CC8              mov ax,cs
00000A9C  8ED8              mov ds,ax
00000A9E  9C                pushfw
00000A9F  FA                cli
00000AA0  FF1E950A          call word far [0xa95]
00000AA4  66E862F9FFFF      call dword 0x40c
00000AAA  6650              push eax
00000AAC  B020              mov al,0x20
00000AAE  E620              out 0x20,al
00000AB0  6658              pop eax
00000AB2  1F                pop ds
00000AB3  CF                iretw
00000AB4  0000              add [bx+si],al
00000AB6  0000              add [bx+si],al
00000AB8  1E                push ds
00000AB9  8CC8              mov ax,cs
00000ABB  8ED8              mov ds,ax
00000ABD  9C                pushfw
00000ABE  FA                cli
00000ABF  FF1EB40A          call word far [0xab4]
00000AC3  66E882F9FFFF      call dword 0x44b
00000AC9  6650              push eax
00000ACB  B020              mov al,0x20
00000ACD  E620              out 0x20,al
00000ACF  6658              pop eax
00000AD1  1F                pop ds
00000AD2  CF                iretw
00000AD3  0000              add [bx+si],al
00000AD5  0000              add [bx+si],al
00000AD7  1E                push ds
00000AD8  8CC8              mov ax,cs
00000ADA  8ED8              mov ds,ax
00000ADC  9C                pushfw
00000ADD  FA                cli
00000ADE  FF1ED30A          call word far [0xad3]
00000AE2  66E8E2F7FFFF      call dword 0x2ca
00000AE8  6650              push eax
00000AEA  B020              mov al,0x20
00000AEC  E620              out 0x20,al
00000AEE  6658              pop eax
00000AF0  1F                pop ds
00000AF1  CF                iretw
00000AF2  0000              add [bx+si],al
00000AF4  0000              add [bx+si],al
00000AF6  1E                push ds
00000AF7  8CC8              mov ax,cs
00000AF9  8ED8              mov ds,ax
00000AFB  9C                pushfw
00000AFC  FA                cli
00000AFD  FF1EF20A          call word far [0xaf2]
00000B01  66E8CCF9FFFF      call dword 0x4d3
00000B07  6650              push eax
00000B09  B020              mov al,0x20
00000B0B  E620              out 0x20,al
00000B0D  6658              pop eax
00000B0F  1F                pop ds
00000B10  CF                iretw
00000B11  0000              add [bx+si],al
00000B13  0000              add [bx+si],al
00000B15  1E                push ds
00000B16  8CC8              mov ax,cs
00000B18  8ED8              mov ds,ax
00000B1A  9C                pushfw
00000B1B  FA                cli
00000B1C  FF1E110B          call word far [0xb11]
00000B20  66E8CDFBFFFF      call dword 0x6f3
00000B26  6650              push eax
00000B28  B020              mov al,0x20
00000B2A  E620              out 0x20,al
00000B2C  6658              pop eax
00000B2E  1F                pop ds
00000B2F  CF                iretw
00000B30  0000              add [bx+si],al
00000B32  0000              add [bx+si],al
00000B34  1E                push ds
00000B35  8CC8              mov ax,cs
00000B37  8ED8              mov ds,ax
00000B39  9C                pushfw
00000B3A  FA                cli
00000B3B  FF1E300B          call word far [0xb30]
00000B3F  66E8CCFDFFFF      call dword 0x911
00000B45  6650              push eax
00000B47  B020              mov al,0x20
00000B49  E620              out 0x20,al
00000B4B  6658              pop eax
00000B4D  1F                pop ds
00000B4E  CF                iretw
00000B4F  6655              push ebp
00000B51  6689E5            mov ebp,esp
00000B54  6683EC04          sub esp,byte +0x4
00000B58  66B800100000      mov eax,0x1000
00000B5E  CD16              int 0x16
00000B60  678845FF          mov [ebp-0x1],al
00000B64  67660FB645FF      movzx eax,byte [ebp-0x1]
00000B6A  66C9              o32 leave
00000B6C  66C3              o32 ret
00000B6E  6655              push ebp
00000B70  6689E5            mov ebp,esp
00000B73  6653              push ebx
00000B75  6683EC04          sub esp,byte +0x4
00000B79  67668B4508        mov eax,[ebp+0x8]
00000B7E  678845F8          mov [ebp-0x8],al
00000B82  67660FBE45F8      movsx eax,byte [ebp-0x8]
00000B88  6605000E0000      add eax,0xe00
00000B8E  66BA00000000      mov edx,0x0
00000B94  6689D3            mov ebx,edx
00000B97  CD10              int 0x10
00000B99  90                nop
00000B9A  6683C404          add esp,byte +0x4
00000B9E  665B              pop ebx
00000BA0  665D              pop ebp
00000BA2  66C3              o32 ret
00000BA4  6655              push ebp
00000BA6  6689E5            mov ebp,esp
00000BA9  6653              push ebx
00000BAB  6683EC08          sub esp,byte +0x8
00000BAF  67668B5508        mov edx,[ebp+0x8]
00000BB4  67668B450C        mov eax,[ebp+0xc]
00000BB9  678855F8          mov [ebp-0x8],dl
00000BBD  678945F4          mov [ebp-0xc],ax
00000BC1  67660FBE45F8      movsx eax,byte [ebp-0x8]
00000BC7  660500090000      add eax,0x900
00000BCD  67660FB755F4      movzx edx,word [ebp-0xc]
00000BD3  66B901000000      mov ecx,0x1
00000BD9  6689D3            mov ebx,edx
00000BDC  CD10              int 0x10
00000BDE  90                nop
00000BDF  6683C408          add esp,byte +0x8
00000BE3  665B              pop ebx
00000BE5  665D              pop ebp
00000BE7  66C3              o32 ret
00000BE9  6655              push ebp
00000BEB  6689E5            mov ebp,esp
00000BEE  6683EC04          sub esp,byte +0x4
00000BF2  67668B450C        mov eax,[ebp+0xc]
00000BF7  678945FC          mov [ebp-0x4],ax
00000BFB  EB50              jmp short 0xc4d
00000BFD  67660FB745FC      movzx eax,word [ebp-0x4]
00000C03  6650              push eax
00000C05  666A20            o32 push byte +0x20
00000C08  66E896FFFFFF      call dword 0xba4
00000C0E  6683C408          add esp,byte +0x8
00000C12  67668B4508        mov eax,[ebp+0x8]
00000C17  67660FB600        movzx eax,byte [eax]
00000C1C  3C0A              cmp al,0xa
00000C1E  750D              jnz 0xc2d
00000C20  666A0D            o32 push byte +0xd
00000C23  66E845FFFFFF      call dword 0xb6e
00000C29  6683C404          add esp,byte +0x4
00000C2D  67668B4508        mov eax,[ebp+0x8]
00000C32  67660FB600        movzx eax,byte [eax]
00000C37  660FBEC0          movsx eax,al
00000C3B  6650              push eax
00000C3D  66E82BFFFFFF      call dword 0xb6e
00000C43  6683C404          add esp,byte +0x4
00000C47  676683450801      add dword [ebp+0x8],byte +0x1
00000C4D  67668B4508        mov eax,[ebp+0x8]
00000C52  67660FB600        movzx eax,byte [eax]
00000C57  84C0              test al,al
00000C59  75A2              jnz 0xbfd
00000C5B  90                nop
00000C5C  66C9              o32 leave
00000C5E  66C3              o32 ret
00000C60  6655              push ebp
00000C62  6689E5            mov ebp,esp
00000C65  EB3B              jmp short 0xca2
00000C67  67668B4508        mov eax,[ebp+0x8]
00000C6C  67660FB600        movzx eax,byte [eax]
00000C71  3C0A              cmp al,0xa
00000C73  750D              jnz 0xc82
00000C75  666A0D            o32 push byte +0xd
00000C78  66E8F0FEFFFF      call dword 0xb6e
00000C7E  6683C404          add esp,byte +0x4
00000C82  67668B4508        mov eax,[ebp+0x8]
00000C87  67660FB600        movzx eax,byte [eax]
00000C8C  660FBEC0          movsx eax,al
00000C90  6650              push eax
00000C92  66E8D6FEFFFF      call dword 0xb6e
00000C98  6683C404          add esp,byte +0x4
00000C9C  676683450801      add dword [ebp+0x8],byte +0x1
00000CA2  67668B4508        mov eax,[ebp+0x8]
00000CA7  67660FB600        movzx eax,byte [eax]
00000CAC  84C0              test al,al
00000CAE  75B7              jnz 0xc67
00000CB0  90                nop
00000CB1  66C9              o32 leave
00000CB3  66C3              o32 ret
00000CB5  6655              push ebp
00000CB7  6689E5            mov ebp,esp
00000CBA  6683EC04          sub esp,byte +0x4
00000CBE  67C745FE0000      mov word [ebp-0x2],0x0
00000CC4  EB67              jmp short 0xd2d
00000CC6  67807DFD08        cmp byte [ebp-0x3],0x8
00000CCB  752E              jnz 0xcfb
00000CCD  67837DFE00        cmp word [ebp-0x2],byte +0x0
00000CD2  7502              jnz 0xcd6
00000CD4  EB57              jmp short 0xd2d
00000CD6  67836DFE01        sub word [ebp-0x2],byte +0x1
00000CDB  666855320000      push dword 0x3255
00000CE1  66E879FFFFFF      call dword 0xc60
00000CE7  6683C404          add esp,byte +0x4
00000CEB  67660FB745FE      movzx eax,word [ebp-0x2]
00000CF1  67C6800041000020  mov byte [eax+0x4100],0x20
00000CF9  EB32              jmp short 0xd2d
00000CFB  67660FBE45FD      movsx eax,byte [ebp-0x3]
00000D01  6650              push eax
00000D03  66E865FEFFFF      call dword 0xb6e
00000D09  6683C404          add esp,byte +0x4
00000D0D  67660FB745FE      movzx eax,word [ebp-0x2]
00000D13  67668D5001        lea edx,[eax+0x1]
00000D18  678955FE          mov [ebp-0x2],dx
00000D1C  660FB7C0          movzx eax,ax
00000D20  67660FB655FD      movzx edx,byte [ebp-0x3]
00000D26  67889000410000    mov [eax+0x4100],dl
00000D2D  66E81CFEFFFF      call dword 0xb4f
00000D33  678845FD          mov [ebp-0x3],al
00000D37  67807DFD0D        cmp byte [ebp-0x3],0xd
00000D3C  7588              jnz 0xcc6
00000D3E  67660FB745FE      movzx eax,word [ebp-0x2]
00000D44  67C6800041000000  mov byte [eax+0x4100],0x0
00000D4C  666859320000      push dword 0x3259
00000D52  66E808FFFFFF      call dword 0xc60
00000D58  6683C404          add esp,byte +0x4
00000D5C  67660FB745FE      movzx eax,word [ebp-0x2]
00000D62  66C9              o32 leave
00000D64  66C3              o32 ret
00000D66  6655              push ebp
00000D68  6689E5            mov ebp,esp
00000D6B  6683EC0C          sub esp,byte +0xc
00000D6F  66E840FFFFFF      call dword 0xcb5
00000D75  678945F6          mov [ebp-0xa],ax
00000D79  67C745FE0000      mov word [ebp-0x2],0x0
00000D7F  67668B4508        mov eax,[ebp+0x8]
00000D84  67668945F8        mov [ebp-0x8],eax
00000D89  67C745FE0000      mov word [ebp-0x2],0x0
00000D8F  EB26              jmp short 0xdb7
00000D91  67668B45F8        mov eax,[ebp-0x8]
00000D96  67668D5001        lea edx,[eax+0x1]
00000D9B  67668955F8        mov [ebp-0x8],edx
00000DA0  67660FB755FE      movzx edx,word [ebp-0x2]
00000DA6  67660FB692004100  movzx edx,byte [edx+0x4100]
         -00
00000DAF  678810            mov [eax],dl
00000DB2  678345FE01        add word [ebp-0x2],byte +0x1
00000DB7  67660FB745FE      movzx eax,word [ebp-0x2]
00000DBD  673B45F6          cmp ax,[ebp-0xa]
00000DC1  72CE              jc 0xd91
00000DC3  67668B45F8        mov eax,[ebp-0x8]
00000DC8  67C60000          mov byte [eax],0x0
00000DCC  90                nop
00000DCD  66C9              o32 leave
00000DCF  66C3              o32 ret
00000DD1  6655              push ebp
00000DD3  6689E5            mov ebp,esp
00000DD6  6683EC04          sub esp,byte +0x4
00000DDA  6766837D0800      cmp dword [ebp+0x8],byte +0x0
00000DE0  7510              jnz 0xdf2
00000DE2  666A30            o32 push byte +0x30
00000DE5  66E883FDFFFF      call dword 0xb6e
00000DEB  6683C404          add esp,byte +0x4
00000DEF  E9E400            jmp word 0xed6
00000DF2  67C645FF00        mov byte [ebp-0x1],0x0
00000DF7  6766837D0800      cmp dword [ebp+0x8],byte +0x0
00000DFD  0F899700          jns word 0xe98
00000E01  666A2D            o32 push byte +0x2d
00000E04  66E864FDFFFF      call dword 0xb6e
00000E0A  6683C404          add esp,byte +0x4
00000E0E  6766F75D08        neg dword [ebp+0x8]
00000E13  E98200            jmp word 0xe98
00000E16  67668B4508        mov eax,[ebp+0x8]
00000E1B  6699              cdq
00000E1D  6766F77D0C        idiv dword [ebp+0xc]
00000E22  6689D0            mov eax,edx
00000E25  6683F809          cmp eax,byte +0x9
00000E29  7F2F              jg 0xe5a
00000E2B  67660FB645FF      movzx eax,byte [ebp-0x1]
00000E31  67668D5001        lea edx,[eax+0x1]
00000E36  678855FF          mov [ebp-0x1],dl
00000E3A  660FB6C8          movzx ecx,al
00000E3E  67668B4508        mov eax,[ebp+0x8]
00000E43  6699              cdq
00000E45  6766F77D0C        idiv dword [ebp+0xc]
00000E4A  6689D0            mov eax,edx
00000E4D  6683C030          add eax,byte +0x30
00000E51  67888100410000    mov [ecx+0x4100],al
00000E58  EB2D              jmp short 0xe87
00000E5A  67660FB645FF      movzx eax,byte [ebp-0x1]
00000E60  67668D5001        lea edx,[eax+0x1]
00000E65  678855FF          mov [ebp-0x1],dl
00000E69  660FB6C8          movzx ecx,al
00000E6D  67668B4508        mov eax,[ebp+0x8]
00000E72  6699              cdq
00000E74  6766F77D0C        idiv dword [ebp+0xc]
00000E79  6689D0            mov eax,edx
00000E7C  6683C037          add eax,byte +0x37
00000E80  67888100410000    mov [ecx+0x4100],al
00000E87  67668B4508        mov eax,[ebp+0x8]
00000E8C  6699              cdq
00000E8E  6766F77D0C        idiv dword [ebp+0xc]
00000E93  6766894508        mov [ebp+0x8],eax
00000E98  6766837D0800      cmp dword [ebp+0x8],byte +0x0
00000E9E  0F8574FF          jnz word 0xe16
00000EA2  EB1F              jmp short 0xec3
00000EA4  67660FB645FF      movzx eax,byte [ebp-0x1]
00000EAA  67660FB680004100  movzx eax,byte [eax+0x4100]
         -00
00000EB3  660FBEC0          movsx eax,al
00000EB7  6650              push eax
00000EB9  66E8AFFCFFFF      call dword 0xb6e
00000EBF  6683C404          add esp,byte +0x4
00000EC3  67660FB645FF      movzx eax,byte [ebp-0x1]
00000EC9  67668D50FF        lea edx,[eax-0x1]
00000ECE  678855FF          mov [ebp-0x1],dl
00000ED2  84C0              test al,al
00000ED4  75CE              jnz 0xea4
00000ED6  90                nop
00000ED7  66C9              o32 leave
00000ED9  66C3              o32 ret
00000EDB  6655              push ebp
00000EDD  6689E5            mov ebp,esp
00000EE0  6653              push ebx
00000EE2  6683EC08          sub esp,byte +0x8
00000EE6  67668D4508        lea eax,[ebp+0x8]
00000EEB  67668945F8        mov [ebp-0x8],eax
00000EF0  E9FE00            jmp word 0xff1
00000EF3  67668B4508        mov eax,[ebp+0x8]
00000EF8  67660FB600        movzx eax,byte [eax]
00000EFD  3C25              cmp al,0x25
00000EFF  0F85AB00          jnz word 0xfae
00000F03  67668B4508        mov eax,[ebp+0x8]
00000F08  6683C001          add eax,byte +0x1
00000F0C  6766894508        mov [ebp+0x8],eax
00000F11  67668345F804      add dword [ebp-0x8],byte +0x4
00000F17  67668B45F8        mov eax,[ebp-0x8]
00000F1C  3667668B18        mov ebx,[ss:eax]
00000F21  6689D8            mov eax,ebx
00000F24  67668945F4        mov [ebp-0xc],eax
00000F29  67668B4508        mov eax,[ebp+0x8]
00000F2E  67660FB600        movzx eax,byte [eax]
00000F33  660FBEC0          movsx eax,al
00000F37  6683F864          cmp eax,byte +0x64
00000F3B  7435              jz 0xf72
00000F3D  6683F864          cmp eax,byte +0x64
00000F41  7F09              jg 0xf4c
00000F43  6683F863          cmp eax,byte +0x63
00000F47  7412              jz 0xf5b
00000F49  E99700            jmp word 0xfe3
00000F4C  6683F873          cmp eax,byte +0x73
00000F50  7448              jz 0xf9a
00000F52  6683F878          cmp eax,byte +0x78
00000F56  742E              jz 0xf86
00000F58  E98800            jmp word 0xfe3
00000F5B  67668B45F4        mov eax,[ebp-0xc]
00000F60  660FBEC0          movsx eax,al
00000F64  6650              push eax
00000F66  66E802FCFFFF      call dword 0xb6e
00000F6C  6683C404          add esp,byte +0x4
00000F70  EB71              jmp short 0xfe3
00000F72  666A0A            o32 push byte +0xa
00000F75  6766FF75F4        push dword [ebp-0xc]
00000F7A  66E851FEFFFF      call dword 0xdd1
00000F80  6683C408          add esp,byte +0x8
00000F84  EB5D              jmp short 0xfe3
00000F86  666A10            o32 push byte +0x10
00000F89  6766FF75F4        push dword [ebp-0xc]
00000F8E  66E83DFEFFFF      call dword 0xdd1
00000F94  6683C408          add esp,byte +0x8
00000F98  EB49              jmp short 0xfe3
00000F9A  67668B45F4        mov eax,[ebp-0xc]
00000F9F  6650              push eax
00000FA1  66E8B9FCFFFF      call dword 0xc60
00000FA7  6683C404          add esp,byte +0x4
00000FAB  90                nop
00000FAC  EB35              jmp short 0xfe3
00000FAE  67668B4508        mov eax,[ebp+0x8]
00000FB3  67660FB600        movzx eax,byte [eax]
00000FB8  3C0A              cmp al,0xa
00000FBA  750D              jnz 0xfc9
00000FBC  666A0D            o32 push byte +0xd
00000FBF  66E8A9FBFFFF      call dword 0xb6e
00000FC5  6683C404          add esp,byte +0x4
00000FC9  67668B4508        mov eax,[ebp+0x8]
00000FCE  67660FB600        movzx eax,byte [eax]
00000FD3  660FBEC0          movsx eax,al
00000FD7  6650              push eax
00000FD9  66E88FFBFFFF      call dword 0xb6e
00000FDF  6683C404          add esp,byte +0x4
00000FE3  67668B4508        mov eax,[ebp+0x8]
00000FE8  6683C001          add eax,byte +0x1
00000FEC  6766894508        mov [ebp+0x8],eax
00000FF1  67668B4508        mov eax,[ebp+0x8]
00000FF6  67660FB600        movzx eax,byte [eax]
00000FFB  84C0              test al,al
00000FFD  0F85F2FE          jnz word 0xef3
00001001  90                nop
00001002  67668B5DFC        mov ebx,[ebp-0x4]
00001007  66C9              o32 leave
00001009  66C3              o32 ret
0000100B  6655              push ebp
0000100D  6689E5            mov ebp,esp
00001010  6653              push ebx
00001012  6683EC18          sub esp,byte +0x18
00001016  67668D4508        lea eax,[ebp+0x8]
0000101B  67668945F8        mov [ebp-0x8],eax
00001020  66E88FFCFFFF      call dword 0xcb5
00001026  678845EB          mov [ebp-0x15],al
0000102A  67C645F700        mov byte [ebp-0x9],0x0
0000102F  E99E01            jmp word 0x11d0
00001032  67668B4508        mov eax,[ebp+0x8]
00001037  67660FB600        movzx eax,byte [eax]
0000103C  3C25              cmp al,0x25
0000103E  0F858001          jnz word 0x11c2
00001042  67668B4508        mov eax,[ebp+0x8]
00001047  6683C001          add eax,byte +0x1
0000104B  6766894508        mov [ebp+0x8],eax
00001050  67668345F804      add dword [ebp-0x8],byte +0x4
00001056  67668B45F8        mov eax,[ebp-0x8]
0000105B  3667668B18        mov ebx,[ss:eax]
00001060  6689D8            mov eax,ebx
00001063  67668945E4        mov [ebp-0x1c],eax
00001068  EB05              jmp short 0x106f
0000106A  678045F701        add byte [ebp-0x9],0x1
0000106F  67660FB645F7      movzx eax,byte [ebp-0x9]
00001075  67660FB680004100  movzx eax,byte [eax+0x4100]
         -00
0000107E  3C20              cmp al,0x20
00001080  74E8              jz 0x106a
00001082  67668B4508        mov eax,[ebp+0x8]
00001087  67660FB600        movzx eax,byte [eax]
0000108C  3C63              cmp al,0x63
0000108E  752C              jnz 0x10bc
00001090  67660FB645F7      movzx eax,byte [ebp-0x9]
00001096  67668D5001        lea edx,[eax+0x1]
0000109B  678855F7          mov [ebp-0x9],dl
0000109F  660FB6C0          movzx eax,al
000010A3  67660FB680004100  movzx eax,byte [eax+0x4100]
         -00
000010AC  660FBED0          movsx edx,al
000010B0  67668B45E4        mov eax,[ebp-0x1c]
000010B5  67668910          mov [eax],edx
000010B9  E90601            jmp word 0x11c2
000010BC  67668B4508        mov eax,[ebp+0x8]
000010C1  67660FB600        movzx eax,byte [eax]
000010C6  3C73              cmp al,0x73
000010C8  7568              jnz 0x1132
000010CA  67668B45E4        mov eax,[ebp-0x1c]
000010CF  67668945F0        mov [ebp-0x10],eax
000010D4  EB2A              jmp short 0x1100
000010D6  67660FB645F7      movzx eax,byte [ebp-0x9]
000010DC  67668D5001        lea edx,[eax+0x1]
000010E1  678855F7          mov [ebp-0x9],dl
000010E5  660FB6C0          movzx eax,al
000010E9  67660FB690004100  movzx edx,byte [eax+0x4100]
         -00
000010F2  67668B45F0        mov eax,[ebp-0x10]
000010F7  678810            mov [eax],dl
000010FA  67668345F001      add dword [ebp-0x10],byte +0x1
00001100  67660FB645F7      movzx eax,byte [ebp-0x9]
00001106  67660FB680004100  movzx eax,byte [eax+0x4100]
         -00
0000110F  84C0              test al,al
00001111  7413              jz 0x1126
00001113  67660FB645F7      movzx eax,byte [ebp-0x9]
00001119  67660FB680004100  movzx eax,byte [eax+0x4100]
         -00
00001122  3C20              cmp al,0x20
00001124  75B0              jnz 0x10d6
00001126  67668B45F0        mov eax,[ebp-0x10]
0000112B  67C60000          mov byte [eax],0x0
0000112F  E99000            jmp word 0x11c2
00001132  67668B4508        mov eax,[ebp+0x8]
00001137  67660FB600        movzx eax,byte [eax]
0000113C  3C64              cmp al,0x64
0000113E  0F858000          jnz word 0x11c2
00001142  6766C745EC000000  mov dword [ebp-0x14],0x0
         -00
0000114B  EB41              jmp short 0x118e
0000114D  67668B55EC        mov edx,[ebp-0x14]
00001152  6689D0            mov eax,edx
00001155  66C1E002          shl eax,byte 0x2
00001159  6601D0            add eax,edx
0000115C  6601C0            add eax,eax
0000115F  6689C1            mov ecx,eax
00001162  67660FB645F7      movzx eax,byte [ebp-0x9]
00001168  67668D5001        lea edx,[eax+0x1]
0000116D  678855F7          mov [ebp-0x9],dl
00001171  660FB6C0          movzx eax,al
00001175  67660FB680004100  movzx eax,byte [eax+0x4100]
         -00
0000117E  660FBEC0          movsx eax,al
00001182  6683E830          sub eax,byte +0x30
00001186  6601C8            add eax,ecx
00001189  67668945EC        mov [ebp-0x14],eax
0000118E  67660FB645F7      movzx eax,byte [ebp-0x9]
00001194  67660FB680004100  movzx eax,byte [eax+0x4100]
         -00
0000119D  3C2F              cmp al,0x2f
0000119F  7E13              jng 0x11b4
000011A1  67660FB645F7      movzx eax,byte [ebp-0x9]
000011A7  67660FB680004100  movzx eax,byte [eax+0x4100]
         -00
000011B0  3C39              cmp al,0x39
000011B2  7E99              jng 0x114d
000011B4  67668B45E4        mov eax,[ebp-0x1c]
000011B9  67668B55EC        mov edx,[ebp-0x14]
000011BE  67668910          mov [eax],edx
000011C2  67668B4508        mov eax,[ebp+0x8]
000011C7  6683C001          add eax,byte +0x1
000011CB  6766894508        mov [ebp+0x8],eax
000011D0  67668B4508        mov eax,[ebp+0x8]
000011D5  67660FB600        movzx eax,byte [eax]
000011DA  84C0              test al,al
000011DC  0F8552FE          jnz word 0x1032
000011E0  90                nop
000011E1  6683C418          add esp,byte +0x18
000011E5  665B              pop ebx
000011E7  665D              pop ebp
000011E9  66C3              o32 ret
000011EB  6655              push ebp
000011ED  6689E5            mov ebp,esp
000011F0  66B803000000      mov eax,0x3
000011F6  CD10              int 0x10
000011F8  90                nop
000011F9  665D              pop ebp
000011FB  66C3              o32 ret
000011FD  6655              push ebp
000011FF  6689E5            mov ebp,esp
00001202  6653              push ebx
00001204  6683EC04          sub esp,byte +0x4
00001208  66B800080000      mov eax,0x800
0000120E  66BA00000000      mov edx,0x0
00001214  6689D3            mov ebx,edx
00001217  CD10              int 0x10
00001219  678845FB          mov [ebp-0x5],al
0000121D  67660FB645FB      movzx eax,byte [ebp-0x5]
00001223  6683C404          add esp,byte +0x4
00001227  665B              pop ebx
00001229  665D              pop ebp
0000122B  66C3              o32 ret
0000122D  6655              push ebp
0000122F  6689E5            mov ebp,esp
00001232  6653              push ebx
00001234  6683EC04          sub esp,byte +0x4
00001238  67668B4508        mov eax,[ebp+0x8]
0000123D  678845F8          mov [ebp-0x8],al
00001241  67660FB645F8      movzx eax,byte [ebp-0x8]
00001247  660500090000      add eax,0x900
0000124D  66BA07000000      mov edx,0x7
00001253  66B901000000      mov ecx,0x1
00001259  6689D3            mov ebx,edx
0000125C  CD10              int 0x10
0000125E  90                nop
0000125F  6683C404          add esp,byte +0x4
00001263  665B              pop ebx
00001265  665D              pop ebp
00001267  66C3              o32 ret
00001269  6655              push ebp
0000126B  6689E5            mov ebp,esp
0000126E  6653              push ebx
00001270  6683EC04          sub esp,byte +0x4
00001274  66B800030000      mov eax,0x300
0000127A  66BA00000000      mov edx,0x0
00001280  6689D3            mov ebx,edx
00001283  CD10              int 0x10
00001285  6689D0            mov eax,edx
00001288  678945FA          mov [ebp-0x6],ax
0000128C  67660FB745FA      movzx eax,word [ebp-0x6]
00001292  6683C404          add esp,byte +0x4
00001296  665B              pop ebx
00001298  665D              pop ebp
0000129A  66C3              o32 ret
0000129C  6655              push ebp
0000129E  6689E5            mov ebp,esp
000012A1  6653              push ebx
000012A3  6683EC04          sub esp,byte +0x4
000012A7  67668B4508        mov eax,[ebp+0x8]
000012AC  678945F8          mov [ebp-0x8],ax
000012B0  66B800020000      mov eax,0x200
000012B6  66B900000000      mov ecx,0x0
000012BC  67660FB755F8      movzx edx,word [ebp-0x8]
000012C2  6689CB            mov ebx,ecx
000012C5  CD10              int 0x10
000012C7  90                nop
000012C8  6683C404          add esp,byte +0x4
000012CC  665B              pop ebx
000012CE  665D              pop ebp
000012D0  66C3              o32 ret
000012D2  6655              push ebp
000012D4  6689E5            mov ebp,esp
000012D7  6683EC04          sub esp,byte +0x4
000012DB  67668B4508        mov eax,[ebp+0x8]
000012E0  678945FC          mov [ebp-0x4],ax
000012E4  66B800860000      mov eax,0x8600
000012EA  67660FB74DFC      movzx ecx,word [ebp-0x4]
000012F0  66BA00000000      mov edx,0x0
000012F6  CD15              int 0x15
000012F8  90                nop
000012F9  66C9              o32 leave
000012FB  66C3              o32 ret
000012FD  6655              push ebp
000012FF  6689E5            mov ebp,esp
00001302  6653              push ebx
00001304  6683EC04          sub esp,byte +0x4
00001308  67668B4508        mov eax,[ebp+0x8]
0000130D  678845F8          mov [ebp-0x8],al
00001311  67660FBE45F8      movsx eax,byte [ebp-0x8]
00001317  6605000E0000      add eax,0xe00
0000131D  66BA00000000      mov edx,0x0
00001323  6689D3            mov ebx,edx
00001326  CD10              int 0x10
00001328  90                nop
00001329  6683C404          add esp,byte +0x4
0000132D  665B              pop ebx
0000132F  665D              pop ebp
00001331  66C3              o32 ret
00001333  6655              push ebp
00001335  6689E5            mov ebp,esp
00001338  6657              push edi
0000133A  6656              push esi
0000133C  6653              push ebx
0000133E  6683EC20          sub esp,byte +0x20
00001342  67668B7508        mov esi,[ebp+0x8]
00001347  67668B5D0C        mov ebx,[ebp+0xc]
0000134C  67668B4D10        mov ecx,[ebp+0x10]
00001351  67668B5514        mov edx,[ebp+0x14]
00001356  67668B4518        mov eax,[ebp+0x18]
0000135B  678975E4          mov [ebp-0x1c],si
0000135F  67895DE0          mov [ebp-0x20],bx
00001363  67884DDC          mov [ebp-0x24],cl
00001367  678955D8          mov [ebp-0x28],dx
0000136B  678845D4          mov [ebp-0x2c],al
0000136F  66B800080000      mov eax,0x800
00001375  67660FB655D4      movzx edx,byte [ebp-0x2c]
0000137B  06                push es
0000137C  CD13              int 0x13
0000137E  6689D0            mov eax,edx
00001381  67894DF2          mov [ebp-0xe],cx
00001385  678945F0          mov [ebp-0x10],ax
00001389  67660FB745F2      movzx eax,word [ebp-0xe]
0000138F  678845EF          mov [ebp-0x11],al
00001393  67660FB745F0      movzx eax,word [ebp-0x10]
00001399  C1E808            shr ax,byte 0x8
0000139C  6683C001          add eax,byte +0x1
000013A0  678845EE          mov [ebp-0x12],al
000013A4  67660FB745D8      movzx eax,word [ebp-0x28]
000013AA  67660FB64DEF      movzx ecx,byte [ebp-0x11]
000013B0  67660FB655EE      movzx edx,byte [ebp-0x12]
000013B6  6689D6            mov esi,edx
000013B9  660FAFF1          imul esi,ecx
000013BD  6699              cdq
000013BF  66F7FE            idiv esi
000013C2  678845ED          mov [ebp-0x13],al
000013C6  67660FB745D8      movzx eax,word [ebp-0x28]
000013CC  67660FB67DEF      movzx edi,byte [ebp-0x11]
000013D2  6699              cdq
000013D4  66F7FF            idiv edi
000013D7  67660FB64DEE      movzx ecx,byte [ebp-0x12]
000013DD  6699              cdq
000013DF  66F7F9            idiv ecx
000013E2  6689D0            mov eax,edx
000013E5  678845EC          mov [ebp-0x14],al
000013E9  67660FB745D8      movzx eax,word [ebp-0x28]
000013EF  67660FB64DEF      movzx ecx,byte [ebp-0x11]
000013F5  6699              cdq
000013F7  66F7F9            idiv ecx
000013FA  6689D0            mov eax,edx
000013FD  6683C001          add eax,byte +0x1
00001401  678845EB          mov [ebp-0x15],al
00001405  67660FB645DC      movzx eax,byte [ebp-0x24]
0000140B  660500020000      add eax,0x200
00001411  67660FB655ED      movzx edx,byte [ebp-0x13]
00001417  6689D1            mov ecx,edx
0000141A  66C1E108          shl ecx,byte 0x8
0000141E  67660FB655EB      movzx edx,byte [ebp-0x15]
00001424  6601D1            add ecx,edx
00001427  67660FB655EC      movzx edx,byte [ebp-0x14]
0000142D  6689D3            mov ebx,edx
00001430  66C1E308          shl ebx,byte 0x8
00001434  67660FB655D4      movzx edx,byte [ebp-0x2c]
0000143A  6601DA            add edx,ebx
0000143D  67660FB75DE0      movzx ebx,word [ebp-0x20]
00001443  67660FB77DE4      movzx edi,word [ebp-0x1c]
00001449  8EC7              mov es,di
0000144B  CD13              int 0x13
0000144D  07                pop es
0000144E  90                nop
0000144F  6683C420          add esp,byte +0x20
00001453  665B              pop ebx
00001455  665E              pop esi
00001457  665F              pop edi
00001459  665D              pop ebp
0000145B  66C3              o32 ret
0000145D  6655              push ebp
0000145F  6689E5            mov ebp,esp
00001462  6683EC04          sub esp,byte +0x4
00001466  6766C745FC000000  mov dword [ebp-0x4],0x0
         -00
0000146F  EB52              jmp short 0x14c3
00001471  67668B4508        mov eax,[ebp+0x8]
00001476  67660FB610        movzx edx,byte [eax]
0000147B  67668B450C        mov eax,[ebp+0xc]
00001480  67660FB600        movzx eax,byte [eax]
00001485  38C2              cmp dl,al
00001487  7D08              jnl 0x1491
00001489  66B8FFFFFFFF      mov eax,0xffffffff
0000148F  EB44              jmp short 0x14d5
00001491  67668B4508        mov eax,[ebp+0x8]
00001496  67660FB610        movzx edx,byte [eax]
0000149B  67668B450C        mov eax,[ebp+0xc]
000014A0  67660FB600        movzx eax,byte [eax]
000014A5  38C2              cmp dl,al
000014A7  7E08              jng 0x14b1
000014A9  66B801000000      mov eax,0x1
000014AF  EB24              jmp short 0x14d5
000014B1  676683450801      add dword [ebp+0x8],byte +0x1
000014B7  676683450C01      add dword [ebp+0xc],byte +0x1
000014BD  67668345FC01      add dword [ebp-0x4],byte +0x1
000014C3  67668B45FC        mov eax,[ebp-0x4]
000014C8  67663B4510        cmp eax,[ebp+0x10]
000014CD  7CA2              jl 0x1471
000014CF  66B800000000      mov eax,0x0
000014D5  66C9              o32 leave
000014D7  66C3              o32 ret
000014D9  6655              push ebp
000014DB  6689E5            mov ebp,esp
000014DE  67668B4508        mov eax,[ebp+0x8]
000014E3  67660FB600        movzx eax,byte [eax]
000014E8  84C0              test al,al
000014EA  7516              jnz 0x1502
000014EC  67668B450C        mov eax,[ebp+0xc]
000014F1  67660FB600        movzx eax,byte [eax]
000014F6  84C0              test al,al
000014F8  7508              jnz 0x1502
000014FA  66B800000000      mov eax,0x0
00001500  EB4E              jmp short 0x1550
00001502  67668B4508        mov eax,[ebp+0x8]
00001507  67660FB610        movzx edx,byte [eax]
0000150C  67668B450C        mov eax,[ebp+0xc]
00001511  67660FB600        movzx eax,byte [eax]
00001516  38C2              cmp dl,al
00001518  7D08              jnl 0x1522
0000151A  66B8FFFFFFFF      mov eax,0xffffffff
00001520  EB2E              jmp short 0x1550
00001522  67668B4508        mov eax,[ebp+0x8]
00001527  67660FB610        movzx edx,byte [eax]
0000152C  67668B450C        mov eax,[ebp+0xc]
00001531  67660FB600        movzx eax,byte [eax]
00001536  38C2              cmp dl,al
00001538  7E08              jng 0x1542
0000153A  66B801000000      mov eax,0x1
00001540  EB0E              jmp short 0x1550
00001542  676683450801      add dword [ebp+0x8],byte +0x1
00001548  676683450C01      add dword [ebp+0xc],byte +0x1
0000154E  EB8E              jmp short 0x14de
00001550  665D              pop ebp
00001552  66C3              o32 ret
00001554  6655              push ebp
00001556  6689E5            mov ebp,esp
00001559  EB26              jmp short 0x1581
0000155B  67668B450C        mov eax,[ebp+0xc]
00001560  67668D5001        lea edx,[eax+0x1]
00001565  676689550C        mov [ebp+0xc],edx
0000156A  67668B5508        mov edx,[ebp+0x8]
0000156F  67668D4A01        lea ecx,[edx+0x1]
00001574  6766894D08        mov [ebp+0x8],ecx
00001579  67660FB612        movzx edx,byte [edx]
0000157E  678810            mov [eax],dl
00001581  67668B4510        mov eax,[ebp+0x10]
00001586  67668D50FF        lea edx,[eax-0x1]
0000158B  6766895510        mov [ebp+0x10],edx
00001590  6685C0            test eax,eax
00001593  75C6              jnz 0x155b
00001595  67668B450C        mov eax,[ebp+0xc]
0000159A  67C60000          mov byte [eax],0x0
0000159E  90                nop
0000159F  665D              pop ebp
000015A1  66C3              o32 ret
000015A3  6655              push ebp
000015A5  6689E5            mov ebp,esp
000015A8  EB26              jmp short 0x15d0
000015AA  67668B4508        mov eax,[ebp+0x8]
000015AF  67668D5001        lea edx,[eax+0x1]
000015B4  6766895508        mov [ebp+0x8],edx
000015B9  67668B550C        mov edx,[ebp+0xc]
000015BE  67668D4A01        lea ecx,[edx+0x1]
000015C3  6766894D0C        mov [ebp+0xc],ecx
000015C8  67660FB612        movzx edx,byte [edx]
000015CD  678810            mov [eax],dl
000015D0  67668B4510        mov eax,[ebp+0x10]
000015D5  67668D50FF        lea edx,[eax-0x1]
000015DA  6766895510        mov [ebp+0x10],edx
000015DF  6685C0            test eax,eax
000015E2  75C6              jnz 0x15aa
000015E4  90                nop
000015E5  665D              pop ebp
000015E7  66C3              o32 ret
000015E9  6690              xchg eax,eax
000015EB  6690              xchg eax,eax
000015ED  6690              xchg eax,eax
000015EF  90                nop
000015F0  C8000000          enter 0x0,0x0
000015F4  668CC8            mov eax,cs
000015F7  6650              push eax
000015F9  66B804160000      mov eax,0x1604
000015FF  6650              push eax
00001601  FF6E06            jmp word far [bp+0x6]
00001604  C9                leave
00001605  6659              pop ecx
00001607  FFE1              jmp cx
00001609  C8000000          enter 0x0,0x0
0000160D  1E                push ds
0000160E  06                push es
0000160F  56                push si
00001610  57                push di
00001611  1E                push ds
00001612  07                pop es
00001613  8B460C            mov ax,[bp+0xc]
00001616  8ED8              mov ds,ax
00001618  8B760A            mov si,[bp+0xa]
0000161B  8B7E06            mov di,[bp+0x6]
0000161E  8B4E0E            mov cx,[bp+0xe]
00001621  F3A4              rep movsb
00001623  5F                pop di
00001624  5E                pop si
00001625  07                pop es
00001626  1F                pop ds
00001627  C9                leave
00001628  6659              pop ecx
0000162A  FFE1              jmp cx
0000162C  C8000000          enter 0x0,0x0
00001630  1E                push ds
00001631  06                push es
00001632  56                push si
00001633  57                push di
00001634  8B4608            mov ax,[bp+0x8]
00001637  8EC0              mov es,ax
00001639  8B760A            mov si,[bp+0xa]
0000163C  8B7E06            mov di,[bp+0x6]
0000163F  8B4E0E            mov cx,[bp+0xe]
00001642  F3A4              rep movsb
00001644  5F                pop di
00001645  5E                pop si
00001646  07                pop es
00001647  1F                pop ds
00001648  C9                leave
00001649  6659              pop ecx
0000164B  FFE1              jmp cx
0000164D  C8000000          enter 0x0,0x0
00001651  06                push es
00001652  53                push bx
00001653  8B460E            mov ax,[bp+0xe]
00001656  BB5000            mov bx,0x50
00001659  F7E3              mul bx
0000165B  034612            add ax,[bp+0x12]
0000165E  BB0200            mov bx,0x2
00001661  F7E3              mul bx
00001663  89C3              mov bx,ax
00001665  B800B8            mov ax,0xb800
00001668  8EC0              mov es,ax
0000166A  8A660A            mov ah,[bp+0xa]
0000166D  8A4606            mov al,[bp+0x6]
00001670  268907            mov [es:bx],ax
00001673  5B                pop bx
00001674  07                pop es
00001675  C9                leave
00001676  6659              pop ecx
00001678  FFE1              jmp cx
0000167A  6655              push ebp
0000167C  6689E5            mov ebp,esp
0000167F  67668B550C        mov edx,[ebp+0xc]
00001684  6689D0            mov eax,edx
00001687  6601C0            add eax,eax
0000168A  6601D0            add eax,edx
0000168D  66C1E005          shl eax,byte 0x5
00001691  660500060000      add eax,0x600
00001697  666A60            o32 push byte +0x60
0000169A  6650              push eax
0000169C  6766FF7508        push dword [ebp+0x8]
000016A1  66E862FFFFFF      call dword 0x1609
000016A7  6683C40C          add esp,byte +0xc
000016AB  90                nop
000016AC  66C9              o32 leave
000016AE  66C3              o32 ret
000016B0  6655              push ebp
000016B2  6689E5            mov ebp,esp
000016B5  67668B550C        mov edx,[ebp+0xc]
000016BA  6689D0            mov eax,edx
000016BD  6601C0            add eax,eax
000016C0  6601D0            add eax,edx
000016C3  66C1E005          shl eax,byte 0x5
000016C7  660500060000      add eax,0x600
000016CD  666A60            o32 push byte +0x60
000016D0  6766FF7508        push dword [ebp+0x8]
000016D5  6650              push eax
000016D7  66E84FFFFFFF      call dword 0x162c
000016DD  6683C40C          add esp,byte +0xc
000016E1  90                nop
000016E2  66C9              o32 leave
000016E4  66C3              o32 ret
000016E6  6655              push ebp
000016E8  6689E5            mov ebp,esp
000016EB  66A1A03F          mov eax,[0x3fa0]
000016EF  666A04            o32 push byte +0x4
000016F2  666800050000      push dword 0x500
000016F8  6650              push eax
000016FA  66E809FFFFFF      call dword 0x1609
00001700  6683C40C          add esp,byte +0xc
00001704  66A1A03F          mov eax,[0x3fa0]
00001708  67668B10          mov edx,[eax]
0000170C  6683C201          add edx,byte +0x1
00001710  67668910          mov [eax],edx
00001714  66A1A03F          mov eax,[0x3fa0]
00001718  666A04            o32 push byte +0x4
0000171B  6650              push eax
0000171D  666800050000      push dword 0x500
00001723  66E803FFFFFF      call dword 0x162c
00001729  6683C40C          add esp,byte +0xc
0000172D  66A1A03F          mov eax,[0x3fa0]
00001731  67668B00          mov eax,[eax]
00001735  6683E801          sub eax,byte +0x1
00001739  66C9              o32 leave
0000173B  66C3              o32 ret
0000173D  6655              push ebp
0000173F  6689E5            mov ebp,esp
00001742  EB48              jmp short 0x178c
00001744  67668B4508        mov eax,[ebp+0x8]
00001749  67668D5001        lea edx,[eax+0x1]
0000174E  6766895508        mov [ebp+0x8],edx
00001753  666A01            o32 push byte +0x1
00001756  6650              push eax
00001758  6668A43F0000      push dword 0x3fa4
0000175E  66E8A5FEFFFF      call dword 0x1609
00001764  6683C40C          add esp,byte +0xc
00001768  67668B450C        mov eax,[ebp+0xc]
0000176D  67668D5001        lea edx,[eax+0x1]
00001772  676689550C        mov [ebp+0xc],edx
00001777  666A01            o32 push byte +0x1
0000177A  6668A43F0000      push dword 0x3fa4
00001780  6650              push eax
00001782  66E8A4FEFFFF      call dword 0x162c
00001788  6683C40C          add esp,byte +0xc
0000178C  67668B4510        mov eax,[ebp+0x10]
00001791  67668D50FF        lea edx,[eax-0x1]
00001796  6766895510        mov [ebp+0x10],edx
0000179B  6685C0            test eax,eax
0000179E  75A4              jnz 0x1744
000017A0  90                nop
000017A1  66C9              o32 leave
000017A3  66C3              o32 ret
000017A5  6655              push ebp
000017A7  6689E5            mov ebp,esp
000017AA  CD74              int 0x74
000017AC  CD71              int 0x71
000017AE  90                nop
000017AF  665D              pop ebp
000017B1  66C3              o32 ret
000017B3  6655              push ebp
000017B5  6689E5            mov ebp,esp
000017B8  CD75              int 0x75
000017BA  90                nop
000017BB  665D              pop ebp
000017BD  66C3              o32 ret
000017BF  6655              push ebp
000017C1  6689E5            mov ebp,esp
000017C4  6683EC04          sub esp,byte +0x4
000017C8  67668B450C        mov eax,[ebp+0xc]
000017CD  678945FC          mov [ebp-0x4],ax
000017D1  66C706A83F000000  mov dword [0x3fa8],0x0
         -00
000017DA  EB2B              jmp short 0x1807
000017DC  66A1A83F          mov eax,[0x3fa8]
000017E0  6650              push eax
000017E2  6668C03F0000      push dword 0x3fc0
000017E8  66E88CFEFFFF      call dword 0x167a
000017EE  6683C408          add esp,byte +0x8
000017F2  66A11440          mov eax,[0x4014]
000017F6  6685C0            test eax,eax
000017F9  7418              jz 0x1813
000017FB  66A1A83F          mov eax,[0x3fa8]
000017FF  6683C001          add eax,byte +0x1
00001803  66A3A83F          mov [0x3fa8],eax
00001807  66A1A83F          mov eax,[0x3fa8]
0000180B  6683F807          cmp eax,byte +0x7
0000180F  7ECB              jng 0x17dc
00001811  EB01              jmp short 0x1814
00001813  90                nop
00001814  66A1A83F          mov eax,[0x3fa8]
00001818  6683F807          cmp eax,byte +0x7
0000181C  7E19              jng 0x1837
0000181E  66685C320000      push dword 0x325c
00001824  66E8B1F6FFFF      call dword 0xedb
0000182A  6683C404          add esp,byte +0x4
0000182E  66B800000000      mov eax,0x0
00001834  E92601            jmp word 0x195d
00001837  66A1A83F          mov eax,[0x3fa8]
0000183B  66C1E01A          shl eax,byte 0x1a
0000183F  660500050020      add eax,0x20000500
00001845  66A32040          mov [0x4020],eax
00001849  6766FF7508        push dword [ebp+0x8]
0000184E  66E835070000      call dword 0x1f89
00001854  6683C404          add esp,byte +0x4
00001858  66A32440          mov [0x4024],eax
0000185C  66A12440          mov eax,[0x4024]
00001860  6683F8FF          cmp eax,byte -0x1
00001864  7509              jnz 0x186f
00001866  66B800000000      mov eax,0x0
0000186C  E9EE00            jmp word 0x195d
0000186F  668B162040        mov edx,[0x4020]
00001874  66A12440          mov eax,[0x4024]
00001878  6652              push edx
0000187A  6650              push eax
0000187C  66E87F080000      call dword 0x2101
00001882  6683C408          add esp,byte +0x8
00001886  66A12040          mov eax,[0x4020]
0000188A  66C1F810          sar eax,byte 0x10
0000188E  66A3C03F          mov [0x3fc0],eax
00001892  66A1C03F          mov eax,[0x3fc0]
00001896  66A3CC3F          mov [0x3fcc],eax
0000189A  66A1CC3F          mov eax,[0x3fcc]
0000189E  66A3D03F          mov [0x3fd0],eax
000018A2  66A1D03F          mov eax,[0x3fd0]
000018A6  66A3F83F          mov [0x3ff8],eax
000018AA  66A12040          mov eax,[0x4020]
000018AE  660FB7C0          movzx eax,ax
000018B2  66A3E03F          mov [0x3fe0],eax
000018B6  66A1E03F          mov eax,[0x3fe0]
000018BA  66A3F43F          mov [0x3ff4],eax
000018BE  66E822FEFFFF      call dword 0x16e6
000018C4  66A31040          mov [0x4010],eax
000018C8  66C7061C40000000  mov dword [0x401c],0x0
         -00
000018D1  67837DFC00        cmp word [ebp-0x4],byte +0x0
000018D6  7408              jz 0x18e0
000018D8  66B800000000      mov eax,0x0
000018DE  EB06              jmp short 0x18e6
000018E0  66B8FFFFFFFF      mov eax,0xffffffff
000018E6  66A31840          mov [0x4018],eax
000018EA  669C              pushfd
000018EC  6658              pop eax
000018EE  66A3FC3F          mov [0x3ffc],eax
000018F2  66C7062840004000  mov dword [0x4028],0x4000
         -00
000018FB  EB25              jmp short 0x1922
000018FD  66A12840          mov eax,[0x4028]
00001901  67668D5001        lea edx,[eax+0x1]
00001906  6689162840        mov [0x4028],edx
0000190B  67668B5508        mov edx,[ebp+0x8]
00001910  67668D4A01        lea ecx,[edx+0x1]
00001915  6766894D08        mov [ebp+0x8],ecx
0000191A  67660FB612        movzx edx,byte [edx]
0000191F  678810            mov [eax],dl
00001922  67668B4508        mov eax,[ebp+0x8]
00001927  67660FB600        movzx eax,byte [eax]
0000192C  84C0              test al,al
0000192E  75CD              jnz 0x18fd
00001930  66A12840          mov eax,[0x4028]
00001934  67C60000          mov byte [eax],0x0
00001938  66C7061440010000  mov dword [0x4014],0x1
         -00
00001941  66A1A83F          mov eax,[0x3fa8]
00001945  6650              push eax
00001947  6668C03F0000      push dword 0x3fc0
0000194D  66E85DFDFFFF      call dword 0x16b0
00001953  6683C408          add esp,byte +0x8
00001957  66B801000000      mov eax,0x1
0000195D  66C9              o32 leave
0000195F  66C3              o32 ret
00001961  6655              push ebp
00001963  6689E5            mov ebp,esp
00001966  6656              push esi
00001968  6653              push ebx
0000196A  666864320000      push dword 0x3264
00001970  66E865F5FFFF      call dword 0xedb
00001976  6683C404          add esp,byte +0x4
0000197A  67668B4508        mov eax,[ebp+0x8]
0000197F  67668B5054        mov edx,[eax+0x54]
00001984  67668B4508        mov eax,[ebp+0x8]
00001989  67668D4840        lea ecx,[eax+0x40]
0000198E  67668B4508        mov eax,[ebp+0x8]
00001993  67668B4050        mov eax,[eax+0x50]
00001998  6652              push edx
0000199A  6651              push ecx
0000199C  6650              push eax
0000199E  666898320000      push dword 0x3298
000019A4  66E831F5FFFF      call dword 0xedb
000019AA  6683C410          add esp,byte +0x10
000019AE  67668B4508        mov eax,[ebp+0x8]
000019B3  67668B7010        mov esi,[eax+0x10]
000019B8  67668B4508        mov eax,[ebp+0x8]
000019BD  67668B580C        mov ebx,[eax+0xc]
000019C2  67668B4508        mov eax,[ebp+0x8]
000019C7  67668B4808        mov ecx,[eax+0x8]
000019CC  67668B4508        mov eax,[ebp+0x8]
000019D1  67668B5004        mov edx,[eax+0x4]
000019D6  67668B4508        mov eax,[ebp+0x8]
000019DB  67668B00          mov eax,[eax]
000019DF  6656              push esi
000019E1  6653              push ebx
000019E3  6651              push ecx
000019E5  6652              push edx
000019E7  6650              push eax
000019E9  6668B8320000      push dword 0x32b8
000019EF  66E8E6F4FFFF      call dword 0xedb
000019F5  6683C418          add esp,byte +0x18
000019F9  67668B4508        mov eax,[ebp+0x8]
000019FE  67668B5820        mov ebx,[eax+0x20]
00001A03  67668B4508        mov eax,[ebp+0x8]
00001A08  67668B481C        mov ecx,[eax+0x1c]
00001A0D  67668B4508        mov eax,[ebp+0x8]
00001A12  67668B5018        mov edx,[eax+0x18]
00001A17  67668B4508        mov eax,[ebp+0x8]
00001A1C  67668B4014        mov eax,[eax+0x14]
00001A21  6653              push ebx
00001A23  6651              push ecx
00001A25  6652              push edx
00001A27  6650              push eax
00001A29  6668E4320000      push dword 0x32e4
00001A2F  66E8A6F4FFFF      call dword 0xedb
00001A35  6683C414          add esp,byte +0x14
00001A39  67668B4508        mov eax,[ebp+0x8]
00001A3E  67668B5828        mov ebx,[eax+0x28]
00001A43  67668B4508        mov eax,[ebp+0x8]
00001A48  67668B482C        mov ecx,[eax+0x2c]
00001A4D  67668B4508        mov eax,[ebp+0x8]
00001A52  67668B5024        mov edx,[eax+0x24]
00001A57  67668B4508        mov eax,[ebp+0x8]
00001A5C  67668B4030        mov eax,[eax+0x30]
00001A61  6653              push ebx
00001A63  6651              push ecx
00001A65  6652              push edx
00001A67  6650              push eax
00001A69  666808330000      push dword 0x3308
00001A6F  66E866F4FFFF      call dword 0xedb
00001A75  6683C414          add esp,byte +0x14
00001A79  67668B4508        mov eax,[ebp+0x8]
00001A7E  67668B585C        mov ebx,[eax+0x5c]
00001A83  67668B4508        mov eax,[ebp+0x8]
00001A88  67668B483C        mov ecx,[eax+0x3c]
00001A8D  67668B4508        mov eax,[ebp+0x8]
00001A92  67668B5034        mov edx,[eax+0x34]
00001A97  67668B4508        mov eax,[ebp+0x8]
00001A9C  67668B4038        mov eax,[eax+0x38]
00001AA1  6653              push ebx
00001AA3  6651              push ecx
00001AA5  6652              push edx
00001AA7  6650              push eax
00001AA9  66682C330000      push dword 0x332c
00001AAF  66E826F4FFFF      call dword 0xedb
00001AB5  6683C414          add esp,byte +0x14
00001AB9  666864320000      push dword 0x3264
00001ABF  66E816F4FFFF      call dword 0xedb
00001AC5  6683C404          add esp,byte +0x4
00001AC9  90                nop
00001ACA  67668D65F8        lea esp,[ebp-0x8]
00001ACF  665B              pop ebx
00001AD1  665E              pop esi
00001AD3  665D              pop ebp
00001AD5  66C3              o32 ret
00001AD7  6655              push ebp
00001AD9  6689E5            mov ebp,esp
00001ADC  6653              push ebx
00001ADE  6683EC04          sub esp,byte +0x4
00001AE2  67668B4508        mov eax,[ebp+0x8]
00001AE7  678845F8          mov [ebp-0x8],al
00001AEB  67660FBE45F8      movsx eax,byte [ebp-0x8]
00001AF1  6605000E0000      add eax,0xe00
00001AF7  66BA00000000      mov edx,0x0
00001AFD  6689D3            mov ebx,edx
00001B00  CD10              int 0x10
00001B02  90                nop
00001B03  6683C404          add esp,byte +0x4
00001B07  665B              pop ebx
00001B09  665D              pop ebp
00001B0B  66C3              o32 ret
00001B0D  6655              push ebp
00001B0F  6689E5            mov ebp,esp
00001B12  666A4F            o32 push byte +0x4f
00001B15  66E8BCFFFFFF      call dword 0x1ad7
00001B1B  6683C404          add esp,byte +0x4
00001B1F  666A55            o32 push byte +0x55
00001B22  66E8AFFFFFFF      call dword 0x1ad7
00001B28  6683C404          add esp,byte +0x4
00001B2C  666A43            o32 push byte +0x43
00001B2F  66E8A2FFFFFF      call dword 0x1ad7
00001B35  6683C404          add esp,byte +0x4
00001B39  666A48            o32 push byte +0x48
00001B3C  66E895FFFFFF      call dword 0x1ad7
00001B42  6683C404          add esp,byte +0x4
00001B46  666A21            o32 push byte +0x21
00001B49  66E888FFFFFF      call dword 0x1ad7
00001B4F  6683C404          add esp,byte +0x4
00001B53  666A0D            o32 push byte +0xd
00001B56  66E87BFFFFFF      call dword 0x1ad7
00001B5C  6683C404          add esp,byte +0x4
00001B60  666A0A            o32 push byte +0xa
00001B63  66E86EFFFFFF      call dword 0x1ad7
00001B69  6683C404          add esp,byte +0x4
00001B6D  90                nop
00001B6E  66C9              o32 leave
00001B70  66C3              o32 ret
00001B72  6655              push ebp
00001B74  6689E5            mov ebp,esp
00001B77  6683EC04          sub esp,byte +0x4
00001B7B  67668B4508        mov eax,[ebp+0x8]
00001B80  678845FC          mov [ebp-0x4],al
00001B84  67660FB645FC      movzx eax,byte [ebp-0x4]
00001B8A  6683E830          sub eax,byte +0x30
00001B8E  66C9              o32 leave
00001B90  66C3              o32 ret
00001B92  6655              push ebp
00001B94  6689E5            mov ebp,esp
00001B97  6683EC08          sub esp,byte +0x8
00001B9B  67668B450C        mov eax,[ebp+0xc]
00001BA0  678945F8          mov [ebp-0x8],ax
00001BA4  67C745FE0000      mov word [ebp-0x2],0x0
00001BAA  EB40              jmp short 0x1bec
00001BAC  67668B4508        mov eax,[ebp+0x8]
00001BB1  67660FB600        movzx eax,byte [eax]
00001BB6  3C60              cmp al,0x60
00001BB8  7E27              jng 0x1be1
00001BBA  67668B4508        mov eax,[ebp+0x8]
00001BBF  67660FB600        movzx eax,byte [eax]
00001BC4  3C7A              cmp al,0x7a
00001BC6  7F19              jg 0x1be1
00001BC8  67668B4508        mov eax,[ebp+0x8]
00001BCD  67660FB600        movzx eax,byte [eax]
00001BD2  6683E820          sub eax,byte +0x20
00001BD6  6689C2            mov edx,eax
00001BD9  67668B4508        mov eax,[ebp+0x8]
00001BDE  678810            mov [eax],dl
00001BE1  676683450801      add dword [ebp+0x8],byte +0x1
00001BE7  678345FE01        add word [ebp-0x2],byte +0x1
00001BEC  67660FB745FE      movzx eax,word [ebp-0x2]
00001BF2  673B45F8          cmp ax,[ebp-0x8]
00001BF6  72B4              jc 0x1bac
00001BF8  90                nop
00001BF9  66C9              o32 leave
00001BFB  66C3              o32 ret
00001BFD  6655              push ebp
00001BFF  6689E5            mov ebp,esp
00001C02  6683EC08          sub esp,byte +0x8
00001C06  67668B450C        mov eax,[ebp+0xc]
00001C0B  678945F8          mov [ebp-0x8],ax
00001C0F  67C745FE0000      mov word [ebp-0x2],0x0
00001C15  EB40              jmp short 0x1c57
00001C17  67668B4508        mov eax,[ebp+0x8]
00001C1C  67660FB600        movzx eax,byte [eax]
00001C21  3C40              cmp al,0x40
00001C23  7E27              jng 0x1c4c
00001C25  67668B4508        mov eax,[ebp+0x8]
00001C2A  67660FB600        movzx eax,byte [eax]
00001C2F  3C5A              cmp al,0x5a
00001C31  7F19              jg 0x1c4c
00001C33  67668B4508        mov eax,[ebp+0x8]
00001C38  67660FB600        movzx eax,byte [eax]
00001C3D  6683C020          add eax,byte +0x20
00001C41  6689C2            mov edx,eax
00001C44  67668B4508        mov eax,[ebp+0x8]
00001C49  678810            mov [eax],dl
00001C4C  676683450801      add dword [ebp+0x8],byte +0x1
00001C52  678345FE01        add word [ebp-0x2],byte +0x1
00001C57  67660FB745FE      movzx eax,word [ebp-0x2]
00001C5D  673B45F8          cmp ax,[ebp-0x8]
00001C61  72B4              jc 0x1c17
00001C63  90                nop
00001C64  66C9              o32 leave
00001C66  66C3              o32 ret
00001C68  6655              push ebp
00001C6A  6689E5            mov ebp,esp
00001C6D  6683EC04          sub esp,byte +0x4
00001C71  67668B4508        mov eax,[ebp+0x8]
00001C76  678845FC          mov [ebp-0x4],al
00001C7A  67660FB645FC      movzx eax,byte [ebp-0x4]
00001C80  6683C030          add eax,byte +0x30
00001C84  66C9              o32 leave
00001C86  66C3              o32 ret
00001C88  6655              push ebp
00001C8A  6689E5            mov ebp,esp
00001C8D  EB20              jmp short 0x1caf
00001C8F  67668B4508        mov eax,[ebp+0x8]
00001C94  67660FB600        movzx eax,byte [eax]
00001C99  660FBEC0          movsx eax,al
00001C9D  6650              push eax
00001C9F  66E832FEFFFF      call dword 0x1ad7
00001CA5  6683C404          add esp,byte +0x4
00001CA9  676683450801      add dword [ebp+0x8],byte +0x1
00001CAF  67668B4508        mov eax,[ebp+0x8]
00001CB4  67660FB600        movzx eax,byte [eax]
00001CB9  84C0              test al,al
00001CBB  75D2              jnz 0x1c8f
00001CBD  90                nop
00001CBE  66C9              o32 leave
00001CC0  66C3              o32 ret
00001CC2  6655              push ebp
00001CC4  6689E5            mov ebp,esp
00001CC7  666A09            o32 push byte +0x9
00001CCA  666A01            o32 push byte +0x1
00001CCD  666800440000      push dword 0x4400
00001CD3  66E8400D0000      call dword 0x2a19
00001CD9  6683C40C          add esp,byte +0xc
00001CDD  90                nop
00001CDE  66C9              o32 leave
00001CE0  66C3              o32 ret
00001CE2  6655              push ebp
00001CE4  6689E5            mov ebp,esp
00001CE7  660FB706A040      movzx eax,word [0x40a0]
00001CED  660FB7C0          movzx eax,ax
00001CF1  665D              pop ebp
00001CF3  66C3              o32 ret
00001CF5  6655              push ebp
00001CF7  6689E5            mov ebp,esp
00001CFA  6683EC0C          sub esp,byte +0xc
00001CFE  67668B4508        mov eax,[ebp+0x8]
00001D03  678945F4          mov [ebp-0xc],ax
00001D07  67660FB755F4      movzx edx,word [ebp-0xc]
00001D0D  67660FB745F4      movzx eax,word [ebp-0xc]
00001D13  D1E8              shr ax,1
00001D15  660FB7C0          movzx eax,ax
00001D19  6601D0            add eax,edx
00001D1C  67668945F8        mov [ebp-0x8],eax
00001D21  67668B45F8        mov eax,[ebp-0x8]
00001D26  660500440000      add eax,0x4400
00001D2C  67660FB700        movzx eax,word [eax]
00001D31  678945FE          mov [ebp-0x2],ax
00001D35  67660FB745F4      movzx eax,word [ebp-0xc]
00001D3B  6683E001          and eax,byte +0x1
00001D3F  6685C0            test eax,eax
00001D42  7407              jz 0x1d4b
00001D44  67C16DFE04        shr word [ebp-0x2],byte 0x4
00001D49  EB06              jmp short 0x1d51
00001D4B  678165FEFF0F      and word [ebp-0x2],0xfff
00001D51  67660FB745FE      movzx eax,word [ebp-0x2]
00001D57  66C9              o32 leave
00001D59  66C3              o32 ret
00001D5B  6655              push ebp
00001D5D  6689E5            mov ebp,esp
00001D60  6683EC04          sub esp,byte +0x4
00001D64  67668B4508        mov eax,[ebp+0x8]
00001D69  678945FC          mov [ebp-0x4],ax
00001D6D  67660FB745FC      movzx eax,word [ebp-0x4]
00001D73  6650              push eax
00001D75  66E87AFFFFFF      call dword 0x1cf5
00001D7B  6683C404          add esp,byte +0x4
00001D7F  66C9              o32 leave
00001D81  66C3              o32 ret
00001D83  6655              push ebp
00001D85  6689E5            mov ebp,esp
00001D88  6683EC08          sub esp,byte +0x8
00001D8C  67668B4508        mov eax,[ebp+0x8]
00001D91  678945F8          mov [ebp-0x8],ax
00001D95  67C745FE0100      mov word [ebp-0x2],0x1
00001D9B  67660FB745F8      movzx eax,word [ebp-0x8]
00001DA1  678945FC          mov [ebp-0x4],ax
00001DA5  67837DF800        cmp word [ebp-0x8],byte +0x0
00001DAA  7516              jnz 0x1dc2
00001DAC  66B80E000000      mov eax,0xe
00001DB2  EB58              jmp short 0x1e0c
00001DB4  67660FB745FE      movzx eax,word [ebp-0x2]
00001DBA  6683C001          add eax,byte +0x1
00001DBE  678945FE          mov [ebp-0x2],ax
00001DC2  67660FB745FC      movzx eax,word [ebp-0x4]
00001DC8  6650              push eax
00001DCA  66E88BFFFFFF      call dword 0x1d5b
00001DD0  6683C404          add esp,byte +0x4
00001DD4  678945FC          mov [ebp-0x4],ax
00001DD8  67837DFC00        cmp word [ebp-0x4],byte +0x0
00001DDD  7410              jz 0x1def
00001DDF  67817DFCEF0F      cmp word [ebp-0x4],0xfef
00001DE5  7708              ja 0x1def
00001DE7  66B801000000      mov eax,0x1
00001DED  EB06              jmp short 0x1df5
00001DEF  66B800000000      mov eax,0x0
00001DF5  6685C0            test eax,eax
00001DF8  75BA              jnz 0x1db4
00001DFA  67837DFC00        cmp word [ebp-0x4],byte +0x0
00001DFF  7505              jnz 0x1e06
00001E01  67836DFE01        sub word [ebp-0x2],byte +0x1
00001E06  67660FB745FE      movzx eax,word [ebp-0x2]
00001E0C  66C9              o32 leave
00001E0E  66C3              o32 ret
00001E10  6655              push ebp
00001E12  6689E5            mov ebp,esp
00001E15  6657              push edi
00001E17  6683EC08          sub esp,byte +0x8
00001E1B  67668B450C        mov eax,[ebp+0xc]
00001E20  66B9FFFFFFFF      mov ecx,0xffffffff
00001E26  6689C2            mov edx,eax
00001E29  66B800000000      mov eax,0x0
00001E2F  6689D7            mov edi,edx
00001E32  F2AE              repne scasb
00001E34  6689C8            mov eax,ecx
00001E37  66F7D0            not eax
00001E3A  6683E801          sub eax,byte +0x1
00001E3E  67668945F4        mov [ebp-0xc],eax
00001E43  6766837DF40C      cmp dword [ebp-0xc],byte +0xc
00001E49  7E09              jng 0x1e54
00001E4B  66B800000000      mov eax,0x0
00001E51  E92C01            jmp word 0x1f80
00001E54  6668A4400000      push dword 0x40a4
00001E5A  6766FF7508        push dword [ebp+0x8]
00001E5F  66E826030000      call dword 0x218b
00001E65  6683C408          add esp,byte +0x8
00001E69  6766C745F8000000  mov dword [ebp-0x8],0x0
         -00
00001E72  EB7C              jmp short 0x1ef0
00001E74  67668B55F8        mov edx,[ebp-0x8]
00001E79  67668B450C        mov eax,[ebp+0xc]
00001E7E  6601D0            add eax,edx
00001E81  67660FB600        movzx eax,byte [eax]
00001E86  3C60              cmp al,0x60
00001E88  7E3F              jng 0x1ec9
00001E8A  67668B55F8        mov edx,[ebp-0x8]
00001E8F  67668B450C        mov eax,[ebp+0xc]
00001E94  6601D0            add eax,edx
00001E97  67660FB600        movzx eax,byte [eax]
00001E9C  3C7A              cmp al,0x7a
00001E9E  7F29              jg 0x1ec9
00001EA0  67668B55F8        mov edx,[ebp-0x8]
00001EA5  67668B450C        mov eax,[ebp+0xc]
00001EAA  6601D0            add eax,edx
00001EAD  67660FB600        movzx eax,byte [eax]
00001EB2  6683E820          sub eax,byte +0x20
00001EB6  6689C2            mov edx,eax
00001EB9  67668B45F8        mov eax,[ebp-0x8]
00001EBE  6605B4400000      add eax,0x40b4
00001EC4  678810            mov [eax],dl
00001EC7  EB21              jmp short 0x1eea
00001EC9  67668B55F8        mov edx,[ebp-0x8]
00001ECE  67668B450C        mov eax,[ebp+0xc]
00001ED3  6601D0            add eax,edx
00001ED6  67660FB600        movzx eax,byte [eax]
00001EDB  67668B55F8        mov edx,[ebp-0x8]
00001EE0  6681C2B4400000    add edx,0x40b4
00001EE7  678802            mov [edx],al
00001EEA  67668345F801      add dword [ebp-0x8],byte +0x1
00001EF0  67668B45F8        mov eax,[ebp-0x8]
00001EF5  67663B45F4        cmp eax,[ebp-0xc]
00001EFA  0F8C76FF          jl word 0x1e74
00001EFE  67668B45F4        mov eax,[ebp-0xc]
00001F03  67668945F8        mov [ebp-0x8],eax
00001F08  EB15              jmp short 0x1f1f
00001F0A  67668B45F8        mov eax,[ebp-0x8]
00001F0F  6605B4400000      add eax,0x40b4
00001F15  67C60020          mov byte [eax],0x20
00001F19  67668345F801      add dword [ebp-0x8],byte +0x1
00001F1F  6766837DF80B      cmp dword [ebp-0x8],byte +0xb
00001F25  7EE3              jng 0x1f0a
00001F27  C606C04000        mov byte [0x40c0],0x0
00001F2C  660FB606C040      movzx eax,byte [0x40c0]
00001F32  A2B040            mov [0x40b0],al
00001F35  6766C745F8000000  mov dword [ebp-0x8],0x0
         -00
00001F3E  EB32              jmp short 0x1f72
00001F40  67668B45F8        mov eax,[ebp-0x8]
00001F45  6605A4400000      add eax,0x40a4
00001F4B  67660FB610        movzx edx,byte [eax]
00001F50  67668B45F8        mov eax,[ebp-0x8]
00001F55  6605B4400000      add eax,0x40b4
00001F5B  67660FB600        movzx eax,byte [eax]
00001F60  38C2              cmp dl,al
00001F62  7408              jz 0x1f6c
00001F64  66B800000000      mov eax,0x0
00001F6A  EB14              jmp short 0x1f80
00001F6C  67668345F801      add dword [ebp-0x8],byte +0x1
00001F72  6766837DF80B      cmp dword [ebp-0x8],byte +0xb
00001F78  7EC6              jng 0x1f40
00001F7A  66B801000000      mov eax,0x1
00001F80  67668B7DFC        mov edi,[ebp-0x4]
00001F85  66C9              o32 leave
00001F87  66C3              o32 ret
00001F89  6655              push ebp
00001F8B  6689E5            mov ebp,esp
00001F8E  6683EC18          sub esp,byte +0x18
00001F92  660FB706A040      movzx eax,word [0x40a0]
00001F98  660FB7C0          movzx eax,ax
00001F9C  6650              push eax
00001F9E  66E8DFFDFFFF      call dword 0x1d83
00001FA4  6683C404          add esp,byte +0x4
00001FA8  660FB7C0          movzx eax,ax
00001FAC  67668945EC        mov [ebp-0x14],eax
00001FB1  660FB706A040      movzx eax,word [0x40a0]
00001FB7  660FB7C0          movzx eax,ax
00001FBB  67668945FC        mov [ebp-0x4],eax
00001FC0  6766C745F8FFFFFF  mov dword [ebp-0x8],0xffffffff
         -FF
00001FC9  6766C745F4000000  mov dword [ebp-0xc],0x0
         -00
00001FD2  E91201            jmp word 0x20e7
00001FD5  660FB706A040      movzx eax,word [0x40a0]
00001FDB  85C0              test ax,ax
00001FDD  7524              jnz 0x2003
00001FDF  67668B45F4        mov eax,[ebp-0xc]
00001FE4  6683C013          add eax,byte +0x13
00001FE8  660FB7C0          movzx eax,ax
00001FEC  666A01            o32 push byte +0x1
00001FEF  6650              push eax
00001FF1  6668005A0000      push dword 0x5a00
00001FF7  66E81C0A0000      call dword 0x2a19
00001FFD  6683C40C          add esp,byte +0xc
00002001  EB22              jmp short 0x2025
00002003  67668B45FC        mov eax,[ebp-0x4]
00002008  6683C01F          add eax,byte +0x1f
0000200C  660FB7C0          movzx eax,ax
00002010  666A01            o32 push byte +0x1
00002013  6650              push eax
00002015  6668005A0000      push dword 0x5a00
0000201B  66E8F8090000      call dword 0x2a19
00002021  6683C40C          add esp,byte +0xc
00002025  660FB706A040      movzx eax,word [0x40a0]
0000202B  85C0              test ax,ax
0000202D  741E              jz 0x204d
0000202F  67668B45FC        mov eax,[ebp-0x4]
00002034  660FB7C0          movzx eax,ax
00002038  6650              push eax
0000203A  66E81BFDFFFF      call dword 0x1d5b
00002040  6683C404          add esp,byte +0x4
00002044  660FB7C0          movzx eax,ax
00002048  67668945FC        mov [ebp-0x4],eax
0000204D  6766C745F0000000  mov dword [ebp-0x10],0x0
         -00
00002056  EB76              jmp short 0x20ce
00002058  67668B45F0        mov eax,[ebp-0x10]
0000205D  66C1E005          shl eax,byte 0x5
00002061  6605005A0000      add eax,0x5a00
00002067  67668945E8        mov [ebp-0x18],eax
0000206C  67668B45E8        mov eax,[ebp-0x18]
00002071  67660FB600        movzx eax,byte [eax]
00002076  84C0              test al,al
00002078  744D              jz 0x20c7
0000207A  6766FF7508        push dword [ebp+0x8]
0000207F  6766FF75E8        push dword [ebp-0x18]
00002084  66E886FDFFFF      call dword 0x1e10
0000208A  6683C408          add esp,byte +0x8
0000208E  6683F801          cmp eax,byte +0x1
00002092  7534              jnz 0x20c8
00002094  67668B45E8        mov eax,[ebp-0x18]
00002099  67660FB7401A      movzx eax,word [eax+0x1a]
0000209F  660FB7C0          movzx eax,ax
000020A3  67668945F8        mov [ebp-0x8],eax
000020A8  67668B45E8        mov eax,[ebp-0x18]
000020AD  67660FB6400B      movzx eax,byte [eax+0xb]
000020B3  660FB6C0          movzx eax,al
000020B7  6683E010          and eax,byte +0x10
000020BB  6685C0            test eax,eax
000020BE  7418              jz 0x20d8
000020C0  6766F75DF8        neg dword [ebp-0x8]
000020C5  EB11              jmp short 0x20d8
000020C7  90                nop
000020C8  67668345F001      add dword [ebp-0x10],byte +0x1
000020CE  6766837DF00F      cmp dword [ebp-0x10],byte +0xf
000020D4  7E82              jng 0x2058
000020D6  EB01              jmp short 0x20d9
000020D8  90                nop
000020D9  6766837DF8FF      cmp dword [ebp-0x8],byte -0x1
000020DF  7516              jnz 0x20f7
000020E1  67668345F401      add dword [ebp-0xc],byte +0x1
000020E7  67668B45F4        mov eax,[ebp-0xc]
000020EC  67663B45EC        cmp eax,[ebp-0x14]
000020F1  0F8CE0FE          jl word 0x1fd5
000020F5  EB01              jmp short 0x20f8
000020F7  90                nop
000020F8  67668B45F8        mov eax,[ebp-0x8]
000020FD  66C9              o32 leave
000020FF  66C3              o32 ret
00002101  6655              push ebp
00002103  6689E5            mov ebp,esp
00002106  6683EC04          sub esp,byte +0x4
0000210A  67668B4508        mov eax,[ebp+0x8]
0000210F  660FB7C0          movzx eax,ax
00002113  6650              push eax
00002115  66E868FCFFFF      call dword 0x1d83
0000211B  6683C404          add esp,byte +0x4
0000211F  660FB7C0          movzx eax,ax
00002123  67668945FC        mov [ebp-0x4],eax
00002128  EB48              jmp short 0x2172
0000212A  67668B4508        mov eax,[ebp+0x8]
0000212F  6683C01F          add eax,byte +0x1f
00002133  660FB7C0          movzx eax,ax
00002137  666A01            o32 push byte +0x1
0000213A  6650              push eax
0000213C  6766FF750C        push dword [ebp+0xc]
00002141  66E8D6090000      call dword 0x2b1d
00002147  6683C40C          add esp,byte +0xc
0000214B  676681450C000200  add dword [ebp+0xc],0x200
         -00
00002154  67668B4508        mov eax,[ebp+0x8]
00002159  660FB7C0          movzx eax,ax
0000215D  6650              push eax
0000215F  66E8F6FBFFFF      call dword 0x1d5b
00002165  6683C404          add esp,byte +0x4
00002169  660FB7C0          movzx eax,ax
0000216D  6766894508        mov [ebp+0x8],eax
00002172  67668B45FC        mov eax,[ebp-0x4]
00002177  67668D50FF        lea edx,[eax-0x1]
0000217C  67668955FC        mov [ebp-0x4],edx
00002181  6685C0            test eax,eax
00002184  75A4              jnz 0x212a
00002186  90                nop
00002187  66C9              o32 leave
00002189  66C3              o32 ret
0000218B  6655              push ebp
0000218D  6689E5            mov ebp,esp
00002190  6683EC08          sub esp,byte +0x8
00002194  6766C745F8000000  mov dword [ebp-0x8],0x0
         -00
0000219D  6766C745FC000000  mov dword [ebp-0x4],0x0
         -00
000021A6  EB17              jmp short 0x21bf
000021A8  67668B55FC        mov edx,[ebp-0x4]
000021AD  67668B450C        mov eax,[ebp+0xc]
000021B2  6601D0            add eax,edx
000021B5  67C60000          mov byte [eax],0x0
000021B9  67668345FC01      add dword [ebp-0x4],byte +0x1
000021BF  6766837DFC0C      cmp dword [ebp-0x4],byte +0xc
000021C5  7EE1              jng 0x21a8
000021C7  6766C745FC000000  mov dword [ebp-0x4],0x0
         -00
000021D0  EB61              jmp short 0x2233
000021D2  67668B5508        mov edx,[ebp+0x8]
000021D7  67668B45FC        mov eax,[ebp-0x4]
000021DC  6601D0            add eax,edx
000021DF  67660FB600        movzx eax,byte [eax]
000021E4  84C0              test al,al
000021E6  7445              jz 0x222d
000021E8  67668B5508        mov edx,[ebp+0x8]
000021ED  67668B45FC        mov eax,[ebp-0x4]
000021F2  6601D0            add eax,edx
000021F5  67660FB600        movzx eax,byte [eax]
000021FA  3C20              cmp al,0x20
000021FC  742F              jz 0x222d
000021FE  67668B45F8        mov eax,[ebp-0x8]
00002203  67668D5001        lea edx,[eax+0x1]
00002208  67668955F8        mov [ebp-0x8],edx
0000220D  6689C2            mov edx,eax
00002210  67668B450C        mov eax,[ebp+0xc]
00002215  6601D0            add eax,edx
00002218  67668B4D08        mov ecx,[ebp+0x8]
0000221D  67668B55FC        mov edx,[ebp-0x4]
00002222  6601CA            add edx,ecx
00002225  67660FB612        movzx edx,byte [edx]
0000222A  678810            mov [eax],dl
0000222D  67668345FC01      add dword [ebp-0x4],byte +0x1
00002233  6766837DFC07      cmp dword [ebp-0x4],byte +0x7
00002239  7E97              jng 0x21d2
0000223B  67668B4508        mov eax,[ebp+0x8]
00002240  67660FB6400B      movzx eax,byte [eax+0xb]
00002246  660FB6C0          movzx eax,al
0000224A  6683E010          and eax,byte +0x10
0000224E  6685C0            test eax,eax
00002251  742B              jz 0x227e
00002253  67668B45F8        mov eax,[ebp-0x8]
00002258  67668945FC        mov [ebp-0x4],eax
0000225D  EB17              jmp short 0x2276
0000225F  67668B55FC        mov edx,[ebp-0x4]
00002264  67668B450C        mov eax,[ebp+0xc]
00002269  6601D0            add eax,edx
0000226C  67C60020          mov byte [eax],0x20
00002270  67668345FC01      add dword [ebp-0x4],byte +0x1
00002276  6766837DFC0B      cmp dword [ebp-0x4],byte +0xb
0000227C  7EE1              jng 0x225f
0000227E  67668B45F8        mov eax,[ebp-0x8]
00002283  67668D5001        lea edx,[eax+0x1]
00002288  67668955F8        mov [ebp-0x8],edx
0000228D  6689C2            mov edx,eax
00002290  67668B450C        mov eax,[ebp+0xc]
00002295  6601D0            add eax,edx
00002298  67C6002E          mov byte [eax],0x2e
0000229C  6766C745FC000000  mov dword [ebp-0x4],0x0
         -00
000022A5  EB6D              jmp short 0x2314
000022A7  67668B5508        mov edx,[ebp+0x8]
000022AC  67668B45FC        mov eax,[ebp-0x4]
000022B1  6601D0            add eax,edx
000022B4  6683C008          add eax,byte +0x8
000022B8  67660FB600        movzx eax,byte [eax]
000022BD  84C0              test al,al
000022BF  744D              jz 0x230e
000022C1  67668B5508        mov edx,[ebp+0x8]
000022C6  67668B45FC        mov eax,[ebp-0x4]
000022CB  6601D0            add eax,edx
000022CE  6683C008          add eax,byte +0x8
000022D2  67660FB600        movzx eax,byte [eax]
000022D7  3C20              cmp al,0x20
000022D9  7433              jz 0x230e
000022DB  67668B45F8        mov eax,[ebp-0x8]
000022E0  67668D5001        lea edx,[eax+0x1]
000022E5  67668955F8        mov [ebp-0x8],edx
000022EA  6689C2            mov edx,eax
000022ED  67668B450C        mov eax,[ebp+0xc]
000022F2  6601D0            add eax,edx
000022F5  67668B4D08        mov ecx,[ebp+0x8]
000022FA  67668B55FC        mov edx,[ebp-0x4]
000022FF  6601CA            add edx,ecx
00002302  6683C208          add edx,byte +0x8
00002306  67660FB612        movzx edx,byte [edx]
0000230B  678810            mov [eax],dl
0000230E  67668345FC01      add dword [ebp-0x4],byte +0x1
00002314  6766837DFC02      cmp dword [ebp-0x4],byte +0x2
0000231A  7E8B              jng 0x22a7
0000231C  67668B45F8        mov eax,[ebp-0x8]
00002321  67668D50FF        lea edx,[eax-0x1]
00002326  67668B450C        mov eax,[ebp+0xc]
0000232B  6601D0            add eax,edx
0000232E  67660FB600        movzx eax,byte [eax]
00002333  3C2E              cmp al,0x2e
00002335  7506              jnz 0x233d
00002337  6766836DF801      sub dword [ebp-0x8],byte +0x1
0000233D  67668B45F8        mov eax,[ebp-0x8]
00002342  67668945FC        mov [ebp-0x4],eax
00002347  EB17              jmp short 0x2360
00002349  67668B55FC        mov edx,[ebp-0x4]
0000234E  67668B450C        mov eax,[ebp+0xc]
00002353  6601D0            add eax,edx
00002356  67C60020          mov byte [eax],0x20
0000235A  67668345FC01      add dword [ebp-0x4],byte +0x1
00002360  6766837DFC0B      cmp dword [ebp-0x4],byte +0xb
00002366  7EE1              jng 0x2349
00002368  67668B450C        mov eax,[ebp+0xc]
0000236D  6683C00C          add eax,byte +0xc
00002371  67C60000          mov byte [eax],0x0
00002375  67668B450C        mov eax,[ebp+0xc]
0000237A  66C9              o32 leave
0000237C  66C3              o32 ret
0000237E  6655              push ebp
00002380  6689E5            mov ebp,esp
00002383  6683EC10          sub esp,byte +0x10
00002387  67668B450C        mov eax,[ebp+0xc]
0000238C  678945F0          mov [ebp-0x10],ax
00002390  67660FB745F0      movzx eax,word [ebp-0x10]
00002396  C1E809            shr ax,byte 0x9
00002399  660FB7C0          movzx eax,ax
0000239D  67668945F4        mov [ebp-0xc],eax
000023A2  67660FB755F0      movzx edx,word [ebp-0x10]
000023A8  67668B4DF4        mov ecx,[ebp-0xc]
000023AD  66B800000000      mov eax,0x0
000023B3  6629C8            sub eax,ecx
000023B6  66C1E009          shl eax,byte 0x9
000023BA  6601D0            add eax,edx
000023BD  67668D501F        lea edx,[eax+0x1f]
000023C2  6685C0            test eax,eax
000023C5  660F48C2          cmovs eax,edx
000023C9  66C1F805          sar eax,byte 0x5
000023CD  67668945F8        mov [ebp-0x8],eax
000023D2  67660FB755F0      movzx edx,word [ebp-0x10]
000023D8  67668B4DF4        mov ecx,[ebp-0xc]
000023DD  66B800000000      mov eax,0x0
000023E3  6629C8            sub eax,ecx
000023E6  66C1E009          shl eax,byte 0x9
000023EA  67668D0C02        lea ecx,[dword edx+eax]
000023EF  67668B55F8        mov edx,[ebp-0x8]
000023F4  66B800000000      mov eax,0x0
000023FA  6629D0            sub eax,edx
000023FD  66C1E005          shl eax,byte 0x5
00002401  6601C8            add eax,ecx
00002404  67668945FC        mov [ebp-0x4],eax
00002409  67668B45F4        mov eax,[ebp-0xc]
0000240E  6605BC070000      add eax,0x7bc
00002414  67668945F4        mov [ebp-0xc],eax
00002419  67668B4508        mov eax,[ebp+0x8]
0000241E  67668B55F4        mov edx,[ebp-0xc]
00002423  67668910          mov [eax],edx
00002427  67668B55F8        mov edx,[ebp-0x8]
0000242C  6766895004        mov [eax+0x4],edx
00002431  67668B55FC        mov edx,[ebp-0x4]
00002436  6766895008        mov [eax+0x8],edx
0000243B  67668B4508        mov eax,[ebp+0x8]
00002440  66C9              o32 leave
00002442  66C20400          o32 ret 0x4
00002446  6655              push ebp
00002448  6689E5            mov ebp,esp
0000244B  6683EC10          sub esp,byte +0x10
0000244F  67668B450C        mov eax,[ebp+0xc]
00002454  678945F0          mov [ebp-0x10],ax
00002458  67660FB745F0      movzx eax,word [ebp-0x10]
0000245E  C1E80B            shr ax,byte 0xb
00002461  660FB7C0          movzx eax,ax
00002465  67668945F4        mov [ebp-0xc],eax
0000246A  67660FB755F0      movzx edx,word [ebp-0x10]
00002470  67668B4DF4        mov ecx,[ebp-0xc]
00002475  66B800000000      mov eax,0x0
0000247B  6629C8            sub eax,ecx
0000247E  66C1E00B          shl eax,byte 0xb
00002482  6601D0            add eax,edx
00002485  67668D501F        lea edx,[eax+0x1f]
0000248A  6685C0            test eax,eax
0000248D  660F48C2          cmovs eax,edx
00002491  66C1F805          sar eax,byte 0x5
00002495  67668945F8        mov [ebp-0x8],eax
0000249A  67660FB755F0      movzx edx,word [ebp-0x10]
000024A0  67668B4DF4        mov ecx,[ebp-0xc]
000024A5  66B800000000      mov eax,0x0
000024AB  6629C8            sub eax,ecx
000024AE  66C1E00B          shl eax,byte 0xb
000024B2  67668D0C02        lea ecx,[dword edx+eax]
000024B7  67668B55F8        mov edx,[ebp-0x8]
000024BC  66B800000000      mov eax,0x0
000024C2  6629D0            sub eax,edx
000024C5  66C1E005          shl eax,byte 0x5
000024C9  6601C8            add eax,ecx
000024CC  6601C0            add eax,eax
000024CF  67668945FC        mov [ebp-0x4],eax
000024D4  67668B4508        mov eax,[ebp+0x8]
000024D9  67668B55F4        mov edx,[ebp-0xc]
000024DE  67668910          mov [eax],edx
000024E2  67668B55F8        mov edx,[ebp-0x8]
000024E7  6766895004        mov [eax+0x4],edx
000024EC  67668B55FC        mov edx,[ebp-0x4]
000024F1  6766895008        mov [eax+0x8],edx
000024F6  67668B4508        mov eax,[ebp+0x8]
000024FB  66C9              o32 leave
000024FD  66C20400          o32 ret 0x4
00002501  6655              push ebp
00002503  6689E5            mov ebp,esp
00002506  6683EC04          sub esp,byte +0x4
0000250A  67668B4508        mov eax,[ebp+0x8]
0000250F  67660FB6400B      movzx eax,byte [eax+0xb]
00002515  678845FF          mov [ebp-0x1],al
00002519  67660FB645FF      movzx eax,byte [ebp-0x1]
0000251F  6683E008          and eax,byte +0x8
00002523  6685C0            test eax,eax
00002526  7411              jz 0x2539
00002528  6766C7450C543300  mov dword [ebp+0xc],0x3354
         -00
00002531  67668B450C        mov eax,[ebp+0xc]
00002536  E90601            jmp word 0x263f
00002539  67660FB645FF      movzx eax,byte [ebp-0x1]
0000253F  6683E010          and eax,byte +0x10
00002543  6685C0            test eax,eax
00002546  7411              jz 0x2559
00002548  6766C7450C5D3300  mov dword [ebp+0xc],0x335d
         -00
00002551  67668B450C        mov eax,[ebp+0xc]
00002556  E9E600            jmp word 0x263f
00002559  67668B450C        mov eax,[ebp+0xc]
0000255E  67C60072          mov byte [eax],0x72
00002562  67668B450C        mov eax,[ebp+0xc]
00002567  6683C001          add eax,byte +0x1
0000256B  67660FB655FF      movzx edx,byte [ebp-0x1]
00002571  6683E201          and edx,byte +0x1
00002575  6685D2            test edx,edx
00002578  7408              jz 0x2582
0000257A  66BA2B000000      mov edx,0x2b
00002580  EB06              jmp short 0x2588
00002582  66BA2D000000      mov edx,0x2d
00002588  678810            mov [eax],dl
0000258B  67668B450C        mov eax,[ebp+0xc]
00002590  6683C002          add eax,byte +0x2
00002594  67C60068          mov byte [eax],0x68
00002598  67668B450C        mov eax,[ebp+0xc]
0000259D  6683C003          add eax,byte +0x3
000025A1  67660FB655FF      movzx edx,byte [ebp-0x1]
000025A7  6683E202          and edx,byte +0x2
000025AB  6685D2            test edx,edx
000025AE  7408              jz 0x25b8
000025B0  66BA2B000000      mov edx,0x2b
000025B6  EB06              jmp short 0x25be
000025B8  66BA2D000000      mov edx,0x2d
000025BE  678810            mov [eax],dl
000025C1  67668B450C        mov eax,[ebp+0xc]
000025C6  6683C004          add eax,byte +0x4
000025CA  67C60073          mov byte [eax],0x73
000025CE  67668B450C        mov eax,[ebp+0xc]
000025D3  6683C005          add eax,byte +0x5
000025D7  67660FB655FF      movzx edx,byte [ebp-0x1]
000025DD  6683E204          and edx,byte +0x4
000025E1  6685D2            test edx,edx
000025E4  7408              jz 0x25ee
000025E6  66BA2B000000      mov edx,0x2b
000025EC  EB06              jmp short 0x25f4
000025EE  66BA2D000000      mov edx,0x2d
000025F4  678810            mov [eax],dl
000025F7  67668B450C        mov eax,[ebp+0xc]
000025FC  6683C006          add eax,byte +0x6
00002600  67C60061          mov byte [eax],0x61
00002604  67668B450C        mov eax,[ebp+0xc]
00002609  6683C007          add eax,byte +0x7
0000260D  67660FB655FF      movzx edx,byte [ebp-0x1]
00002613  6683E220          and edx,byte +0x20
00002617  6685D2            test edx,edx
0000261A  7408              jz 0x2624
0000261C  66BA2B000000      mov edx,0x2b
00002622  EB06              jmp short 0x262a
00002624  66BA2D000000      mov edx,0x2d
0000262A  678810            mov [eax],dl
0000262D  67668B450C        mov eax,[ebp+0xc]
00002632  6683C008          add eax,byte +0x8
00002636  67C60000          mov byte [eax],0x0
0000263A  67668B450C        mov eax,[ebp+0xc]
0000263F  66C9              o32 leave
00002641  66C3              o32 ret
00002643  6655              push ebp
00002645  6689E5            mov ebp,esp
00002648  6653              push ebx
0000264A  6683EC0C          sub esp,byte +0xc
0000264E  67668B4508        mov eax,[ebp+0x8]
00002653  67660FB74016      movzx eax,word [eax+0x16]
00002659  660FB7D0          movzx edx,ax
0000265D  67668D45F0        lea eax,[ebp-0x10]
00002662  6652              push edx
00002664  6650              push eax
00002666  66E8DAFDFFFF      call dword 0x2446
0000266C  6683C404          add esp,byte +0x4
00002670  67668B4DF0        mov ecx,[ebp-0x10]
00002675  66BA67666666      mov edx,0x66666667
0000267B  6689C8            mov eax,ecx
0000267E  66F7EA            imul edx
00002681  66C1FA02          sar edx,byte 0x2
00002685  6689C8            mov eax,ecx
00002688  66C1F81F          sar eax,byte 0x1f
0000268C  6629C2            sub edx,eax
0000268F  6689D0            mov eax,edx
00002692  6683C030          add eax,byte +0x30
00002696  6689C2            mov edx,eax
00002699  67668B450C        mov eax,[ebp+0xc]
0000269E  678810            mov [eax],dl
000026A1  67668B450C        mov eax,[ebp+0xc]
000026A6  67668D5801        lea ebx,[eax+0x1]
000026AB  67668B4DF0        mov ecx,[ebp-0x10]
000026B0  66BA67666666      mov edx,0x66666667
000026B6  6689C8            mov eax,ecx
000026B9  66F7EA            imul edx
000026BC  66C1FA02          sar edx,byte 0x2
000026C0  6689C8            mov eax,ecx
000026C3  66C1F81F          sar eax,byte 0x1f
000026C7  6629C2            sub edx,eax
000026CA  6689D0            mov eax,edx
000026CD  66C1E002          shl eax,byte 0x2
000026D1  6601D0            add eax,edx
000026D4  6601C0            add eax,eax
000026D7  6629C1            sub ecx,eax
000026DA  6689CA            mov edx,ecx
000026DD  6689D0            mov eax,edx
000026E0  6683C030          add eax,byte +0x30
000026E4  678803            mov [ebx],al
000026E7  67668B450C        mov eax,[ebp+0xc]
000026EC  6683C002          add eax,byte +0x2
000026F0  67C6003A          mov byte [eax],0x3a
000026F4  67668B450C        mov eax,[ebp+0xc]
000026F9  67668D5803        lea ebx,[eax+0x3]
000026FE  67668B4DF4        mov ecx,[ebp-0xc]
00002703  66BA67666666      mov edx,0x66666667
00002709  6689C8            mov eax,ecx
0000270C  66F7EA            imul edx
0000270F  66C1FA02          sar edx,byte 0x2
00002713  6689C8            mov eax,ecx
00002716  66C1F81F          sar eax,byte 0x1f
0000271A  6629C2            sub edx,eax
0000271D  6689D0            mov eax,edx
00002720  6683C030          add eax,byte +0x30
00002724  678803            mov [ebx],al
00002727  67668B450C        mov eax,[ebp+0xc]
0000272C  67668D5804        lea ebx,[eax+0x4]
00002731  67668B4DF4        mov ecx,[ebp-0xc]
00002736  66BA67666666      mov edx,0x66666667
0000273C  6689C8            mov eax,ecx
0000273F  66F7EA            imul edx
00002742  66C1FA02          sar edx,byte 0x2
00002746  6689C8            mov eax,ecx
00002749  66C1F81F          sar eax,byte 0x1f
0000274D  6629C2            sub edx,eax
00002750  6689D0            mov eax,edx
00002753  66C1E002          shl eax,byte 0x2
00002757  6601D0            add eax,edx
0000275A  6601C0            add eax,eax
0000275D  6629C1            sub ecx,eax
00002760  6689CA            mov edx,ecx
00002763  6689D0            mov eax,edx
00002766  6683C030          add eax,byte +0x30
0000276A  678803            mov [ebx],al
0000276D  67668B450C        mov eax,[ebp+0xc]
00002772  6683C005          add eax,byte +0x5
00002776  67C60000          mov byte [eax],0x0
0000277A  67668B450C        mov eax,[ebp+0xc]
0000277F  67668B5DFC        mov ebx,[ebp-0x4]
00002784  66C9              o32 leave
00002786  66C3              o32 ret
00002788  6655              push ebp
0000278A  6689E5            mov ebp,esp
0000278D  6653              push ebx
0000278F  6683EC0C          sub esp,byte +0xc
00002793  67668B4508        mov eax,[ebp+0x8]
00002798  67660FB74018      movzx eax,word [eax+0x18]
0000279E  660FB7D0          movzx edx,ax
000027A2  67668D45F0        lea eax,[ebp-0x10]
000027A7  6652              push edx
000027A9  6650              push eax
000027AB  66E8CDFBFFFF      call dword 0x237e
000027B1  6683C404          add esp,byte +0x4
000027B5  67668B4DF0        mov ecx,[ebp-0x10]
000027BA  66BAD34D6210      mov edx,0x10624dd3
000027C0  6689C8            mov eax,ecx
000027C3  66F7EA            imul edx
000027C6  66C1FA06          sar edx,byte 0x6
000027CA  6689C8            mov eax,ecx
000027CD  66C1F81F          sar eax,byte 0x1f
000027D1  6629C2            sub edx,eax
000027D4  6689D0            mov eax,edx
000027D7  6683C030          add eax,byte +0x30
000027DB  6689C2            mov edx,eax
000027DE  67668B450C        mov eax,[ebp+0xc]
000027E3  678810            mov [eax],dl
000027E6  67668B450C        mov eax,[ebp+0xc]
000027EB  67668D5801        lea ebx,[eax+0x1]
000027F0  67668B4DF0        mov ecx,[ebp-0x10]
000027F5  66BA1F85EB51      mov edx,0x51eb851f
000027FB  6689C8            mov eax,ecx
000027FE  66F7EA            imul edx
00002801  66C1FA05          sar edx,byte 0x5
00002805  6689C8            mov eax,ecx
00002808  66C1F81F          sar eax,byte 0x1f
0000280C  6689D1            mov ecx,edx
0000280F  6629C1            sub ecx,eax
00002812  66BA67666666      mov edx,0x66666667
00002818  6689C8            mov eax,ecx
0000281B  66F7EA            imul edx
0000281E  66C1FA02          sar edx,byte 0x2
00002822  6689C8            mov eax,ecx
00002825  66C1F81F          sar eax,byte 0x1f
00002829  6629C2            sub edx,eax
0000282C  6689D0            mov eax,edx
0000282F  66C1E002          shl eax,byte 0x2
00002833  6601D0            add eax,edx
00002836  6601C0            add eax,eax
00002839  6629C1            sub ecx,eax
0000283C  6689CA            mov edx,ecx
0000283F  6689D0            mov eax,edx
00002842  6683C030          add eax,byte +0x30
00002846  678803            mov [ebx],al
00002849  67668B450C        mov eax,[ebp+0xc]
0000284E  67668D5802        lea ebx,[eax+0x2]
00002853  67668B4DF0        mov ecx,[ebp-0x10]
00002858  66BA67666666      mov edx,0x66666667
0000285E  6689C8            mov eax,ecx
00002861  66F7EA            imul edx
00002864  66C1FA02          sar edx,byte 0x2
00002868  6689C8            mov eax,ecx
0000286B  66C1F81F          sar eax,byte 0x1f
0000286F  6689D1            mov ecx,edx
00002872  6629C1            sub ecx,eax
00002875  66BA67666666      mov edx,0x66666667
0000287B  6689C8            mov eax,ecx
0000287E  66F7EA            imul edx
00002881  66C1FA02          sar edx,byte 0x2
00002885  6689C8            mov eax,ecx
00002888  66C1F81F          sar eax,byte 0x1f
0000288C  6629C2            sub edx,eax
0000288F  6689D0            mov eax,edx
00002892  66C1E002          shl eax,byte 0x2
00002896  6601D0            add eax,edx
00002899  6601C0            add eax,eax
0000289C  6629C1            sub ecx,eax
0000289F  6689CA            mov edx,ecx
000028A2  6689D0            mov eax,edx
000028A5  6683C030          add eax,byte +0x30
000028A9  678803            mov [ebx],al
000028AC  67668B450C        mov eax,[ebp+0xc]
000028B1  67668D5803        lea ebx,[eax+0x3]
000028B6  67668B4DF0        mov ecx,[ebp-0x10]
000028BB  66BA67666666      mov edx,0x66666667
000028C1  6689C8            mov eax,ecx
000028C4  66F7EA            imul edx
000028C7  66C1FA02          sar edx,byte 0x2
000028CB  6689C8            mov eax,ecx
000028CE  66C1F81F          sar eax,byte 0x1f
000028D2  6629C2            sub edx,eax
000028D5  6689D0            mov eax,edx
000028D8  66C1E002          shl eax,byte 0x2
000028DC  6601D0            add eax,edx
000028DF  6601C0            add eax,eax
000028E2  6629C1            sub ecx,eax
000028E5  6689CA            mov edx,ecx
000028E8  6689D0            mov eax,edx
000028EB  6683C030          add eax,byte +0x30
000028EF  678803            mov [ebx],al
000028F2  67668B450C        mov eax,[ebp+0xc]
000028F7  6683C004          add eax,byte +0x4
000028FB  67C6002D          mov byte [eax],0x2d
000028FF  67668B450C        mov eax,[ebp+0xc]
00002904  67668D5805        lea ebx,[eax+0x5]
00002909  67668B4DF4        mov ecx,[ebp-0xc]
0000290E  66BA67666666      mov edx,0x66666667
00002914  6689C8            mov eax,ecx
00002917  66F7EA            imul edx
0000291A  66C1FA02          sar edx,byte 0x2
0000291E  6689C8            mov eax,ecx
00002921  66C1F81F          sar eax,byte 0x1f
00002925  6629C2            sub edx,eax
00002928  6689D0            mov eax,edx
0000292B  6683C030          add eax,byte +0x30
0000292F  678803            mov [ebx],al
00002932  67668B450C        mov eax,[ebp+0xc]
00002937  67668D5806        lea ebx,[eax+0x6]
0000293C  67668B4DF4        mov ecx,[ebp-0xc]
00002941  66BA67666666      mov edx,0x66666667
00002947  6689C8            mov eax,ecx
0000294A  66F7EA            imul edx
0000294D  66C1FA02          sar edx,byte 0x2
00002951  6689C8            mov eax,ecx
00002954  66C1F81F          sar eax,byte 0x1f
00002958  6629C2            sub edx,eax
0000295B  6689D0            mov eax,edx
0000295E  66C1E002          shl eax,byte 0x2
00002962  6601D0            add eax,edx
00002965  6601C0            add eax,eax
00002968  6629C1            sub ecx,eax
0000296B  6689CA            mov edx,ecx
0000296E  6689D0            mov eax,edx
00002971  6683C030          add eax,byte +0x30
00002975  678803            mov [ebx],al
00002978  67668B450C        mov eax,[ebp+0xc]
0000297D  6683C007          add eax,byte +0x7
00002981  67C6002D          mov byte [eax],0x2d
00002985  67668B450C        mov eax,[ebp+0xc]
0000298A  67668D5808        lea ebx,[eax+0x8]
0000298F  67668B4DF8        mov ecx,[ebp-0x8]
00002994  66BA67666666      mov edx,0x66666667
0000299A  6689C8            mov eax,ecx
0000299D  66F7EA            imul edx
000029A0  66C1FA02          sar edx,byte 0x2
000029A4  6689C8            mov eax,ecx
000029A7  66C1F81F          sar eax,byte 0x1f
000029AB  6629C2            sub edx,eax
000029AE  6689D0            mov eax,edx
000029B1  6683C030          add eax,byte +0x30
000029B5  678803            mov [ebx],al
000029B8  67668B450C        mov eax,[ebp+0xc]
000029BD  67668D5809        lea ebx,[eax+0x9]
000029C2  67668B4DF8        mov ecx,[ebp-0x8]
000029C7  66BA67666666      mov edx,0x66666667
000029CD  6689C8            mov eax,ecx
000029D0  66F7EA            imul edx
000029D3  66C1FA02          sar edx,byte 0x2
000029D7  6689C8            mov eax,ecx
000029DA  66C1F81F          sar eax,byte 0x1f
000029DE  6629C2            sub edx,eax
000029E1  6689D0            mov eax,edx
000029E4  66C1E002          shl eax,byte 0x2
000029E8  6601D0            add eax,edx
000029EB  6601C0            add eax,eax
000029EE  6629C1            sub ecx,eax
000029F1  6689CA            mov edx,ecx
000029F4  6689D0            mov eax,edx
000029F7  6683C030          add eax,byte +0x30
000029FB  678803            mov [ebx],al
000029FE  67668B450C        mov eax,[ebp+0xc]
00002A03  6683C00A          add eax,byte +0xa
00002A07  67C60000          mov byte [eax],0x0
00002A0B  67668B450C        mov eax,[ebp+0xc]
00002A10  67668B5DFC        mov ebx,[ebp-0x4]
00002A15  66C9              o32 leave
00002A17  66C3              o32 ret
00002A19  6655              push ebp
00002A1B  6689E5            mov ebp,esp
00002A1E  6657              push edi
00002A20  6656              push esi
00002A22  6653              push ebx
00002A24  6683EC0C          sub esp,byte +0xc
00002A28  67668B550C        mov edx,[ebp+0xc]
00002A2D  67668B4510        mov eax,[ebp+0x10]
00002A32  678955EC          mov [ebp-0x14],dx
00002A36  678945E8          mov [ebp-0x18],ax
00002A3A  FA                cli
00002A3B  06                push es
00002A3C  67660FB745EC      movzx eax,word [ebp-0x14]
00002A42  660FB7C0          movzx eax,ax
00002A46  6669C08FE30000    imul eax,eax,dword 0xe38f
00002A4D  66C1E810          shr eax,byte 0x10
00002A51  C1E805            shr ax,byte 0x5
00002A54  678845F3          mov [ebp-0xd],al
00002A58  67660FB745EC      movzx eax,word [ebp-0x14]
00002A5E  660FB7C0          movzx eax,ax
00002A62  6669C08FE30000    imul eax,eax,dword 0xe38f
00002A69  66C1E810          shr eax,byte 0x10
00002A6D  C1E804            shr ax,byte 0x4
00002A70  6683E001          and eax,byte +0x1
00002A74  678845F2          mov [ebp-0xe],al
00002A78  67660FB74DEC      movzx ecx,word [ebp-0x14]
00002A7E  660FB7C1          movzx eax,cx
00002A82  6669C08FE30000    imul eax,eax,dword 0xe38f
00002A89  66C1E810          shr eax,byte 0x10
00002A8D  6689C2            mov edx,eax
00002A90  C1EA04            shr dx,byte 0x4
00002A93  6689D0            mov eax,edx
00002A96  66C1E003          shl eax,byte 0x3
00002A9A  6601D0            add eax,edx
00002A9D  6601C0            add eax,eax
00002AA0  6629C1            sub ecx,eax
00002AA3  6689CA            mov edx,ecx
00002AA6  6689D0            mov eax,edx
00002AA9  6683C001          add eax,byte +0x1
00002AAD  678845F1          mov [ebp-0xf],al
00002AB1  67660FB745E8      movzx eax,word [ebp-0x18]
00002AB7  660500020000      add eax,0x200
00002ABD  67660FB655F3      movzx edx,byte [ebp-0xd]
00002AC3  6689D1            mov ecx,edx
00002AC6  66C1E108          shl ecx,byte 0x8
00002ACA  67660FB655F1      movzx edx,byte [ebp-0xf]
00002AD0  6601D1            add ecx,edx
00002AD3  67660FB655F2      movzx edx,byte [ebp-0xe]
00002AD9  66C1E208          shl edx,byte 0x8
00002ADD  66BB00000000      mov ebx,0x0
00002AE3  BF0040            mov di,0x4000
00002AE6  8EC7              mov es,di
00002AE8  CD13              int 0x13
00002AEA  07                pop es
00002AEB  67660FB745E8      movzx eax,word [ebp-0x18]
00002AF1  66C1E009          shl eax,byte 0x9
00002AF5  6650              push eax
00002AF7  666800000040      push dword 0x40000000
00002AFD  6766FF7508        push dword [ebp+0x8]
00002B02  66E801EBFFFF      call dword 0x1609
00002B08  6683C40C          add esp,byte +0xc
00002B0C  FB                sti
00002B0D  90                nop
00002B0E  67668D65F4        lea esp,[ebp-0xc]
00002B13  665B              pop ebx
00002B15  665E              pop esi
00002B17  665F              pop edi
00002B19  665D              pop ebp
00002B1B  66C3              o32 ret
00002B1D  6655              push ebp
00002B1F  6689E5            mov ebp,esp
00002B22  6657              push edi
00002B24  6656              push esi
00002B26  6653              push ebx
00002B28  6683EC0C          sub esp,byte +0xc
00002B2C  67668B550C        mov edx,[ebp+0xc]
00002B31  67668B4510        mov eax,[ebp+0x10]
00002B36  678955EC          mov [ebp-0x14],dx
00002B3A  678945E8          mov [ebp-0x18],ax
00002B3E  FA                cli
00002B3F  06                push es
00002B40  67660FB745EC      movzx eax,word [ebp-0x14]
00002B46  660FB7C0          movzx eax,ax
00002B4A  6669C08FE30000    imul eax,eax,dword 0xe38f
00002B51  66C1E810          shr eax,byte 0x10
00002B55  C1E805            shr ax,byte 0x5
00002B58  678845F3          mov [ebp-0xd],al
00002B5C  67660FB745EC      movzx eax,word [ebp-0x14]
00002B62  660FB7C0          movzx eax,ax
00002B66  6669C08FE30000    imul eax,eax,dword 0xe38f
00002B6D  66C1E810          shr eax,byte 0x10
00002B71  C1E804            shr ax,byte 0x4
00002B74  6683E001          and eax,byte +0x1
00002B78  678845F2          mov [ebp-0xe],al
00002B7C  67660FB74DEC      movzx ecx,word [ebp-0x14]
00002B82  660FB7C1          movzx eax,cx
00002B86  6669C08FE30000    imul eax,eax,dword 0xe38f
00002B8D  66C1E810          shr eax,byte 0x10
00002B91  6689C2            mov edx,eax
00002B94  C1EA04            shr dx,byte 0x4
00002B97  6689D0            mov eax,edx
00002B9A  66C1E003          shl eax,byte 0x3
00002B9E  6601D0            add eax,edx
00002BA1  6601C0            add eax,eax
00002BA4  6629C1            sub ecx,eax
00002BA7  6689CA            mov edx,ecx
00002BAA  6689D0            mov eax,edx
00002BAD  6683C001          add eax,byte +0x1
00002BB1  678845F1          mov [ebp-0xf],al
00002BB5  67660FB745E8      movzx eax,word [ebp-0x18]
00002BBB  660500020000      add eax,0x200
00002BC1  67668B5508        mov edx,[ebp+0x8]
00002BC6  660FB7DA          movzx ebx,dx
00002BCA  67660FB655F3      movzx edx,byte [ebp-0xd]
00002BD0  6689D1            mov ecx,edx
00002BD3  66C1E108          shl ecx,byte 0x8
00002BD7  67660FB655F1      movzx edx,byte [ebp-0xf]
00002BDD  6601D1            add ecx,edx
00002BE0  67660FB655F2      movzx edx,byte [ebp-0xe]
00002BE6  66C1E208          shl edx,byte 0x8
00002BEA  67668B7508        mov esi,[ebp+0x8]
00002BEF  66C1FE10          sar esi,byte 0x10
00002BF3  6689F7            mov edi,esi
00002BF6  8EC7              mov es,di
00002BF8  CD13              int 0x13
00002BFA  07                pop es
00002BFB  FB                sti
00002BFC  90                nop
00002BFD  6683C40C          add esp,byte +0xc
00002C01  665B              pop ebx
00002C03  665E              pop esi
00002C05  665F              pop edi
00002C07  665D              pop ebp
00002C09  66C3              o32 ret
00002C0B  6655              push ebp
00002C0D  6689E5            mov ebp,esp
00002C10  6683EC08          sub esp,byte +0x8
00002C14  6766C745F8000000  mov dword [ebp-0x8],0x0
         -00
00002C1D  6766C745FC000000  mov dword [ebp-0x4],0x0
         -00
00002C26  E98A00            jmp word 0x2cb3
00002C29  67668B5508        mov edx,[ebp+0x8]
00002C2E  67668B45FC        mov eax,[ebp-0x4]
00002C33  6601D0            add eax,edx
00002C36  67660FB600        movzx eax,byte [eax]
00002C3B  84C0              test al,al
00002C3D  0F848100          jz word 0x2cc2
00002C41  67668B5508        mov edx,[ebp+0x8]
00002C46  67668B45FC        mov eax,[ebp-0x4]
00002C4B  6601D0            add eax,edx
00002C4E  67660FB600        movzx eax,byte [eax]
00002C53  3C0D              cmp al,0xd
00002C55  7416              jz 0x2c6d
00002C57  67668B5508        mov edx,[ebp+0x8]
00002C5C  67668B45FC        mov eax,[ebp-0x4]
00002C61  6601D0            add eax,edx
00002C64  67660FB600        movzx eax,byte [eax]
00002C69  3C0A              cmp al,0xa
00002C6B  7518              jnz 0x2c85
00002C6D  666866330000      push dword 0x3366
00002C73  66E862E2FFFF      call dword 0xedb
00002C79  6683C404          add esp,byte +0x4
00002C7D  67668345F801      add dword [ebp-0x8],byte +0x1
00002C83  EB28              jmp short 0x2cad
00002C85  67668B5508        mov edx,[ebp+0x8]
00002C8A  67668B45FC        mov eax,[ebp-0x4]
00002C8F  6601D0            add eax,edx
00002C92  67660FB600        movzx eax,byte [eax]
00002C97  660FB6C0          movzx eax,al
00002C9B  6650              push eax
00002C9D  666868330000      push dword 0x3368
00002CA3  66E832E2FFFF      call dword 0xedb
00002CA9  6683C408          add esp,byte +0x8
00002CAD  67668345FC01      add dword [ebp-0x4],byte +0x1
00002CB3  6766817DFCFF0100  cmp dword [ebp-0x4],0x1ff
         -00
00002CBC  0F8E69FF          jng word 0x2c29
00002CC0  EB01              jmp short 0x2cc3
00002CC2  90                nop
00002CC3  90                nop
00002CC4  66C9              o32 leave
00002CC6  66C3              o32 ret
00002CC8  6655              push ebp
00002CCA  6689E5            mov ebp,esp
00002CCD  6683EC04          sub esp,byte +0x4
00002CD1  660FB706A040      movzx eax,word [0x40a0]
00002CD7  85C0              test ax,ax
00002CD9  7521              jnz 0x2cfc
00002CDB  67668B4508        mov eax,[ebp+0x8]
00002CE0  67C6002F          mov byte [eax],0x2f
00002CE4  67668B4508        mov eax,[ebp+0x8]
00002CE9  6683C001          add eax,byte +0x1
00002CED  67C60000          mov byte [eax],0x0
00002CF1  66C706B83D010000  mov dword [0x3db8],0x1
         -00
00002CFA  EB4F              jmp short 0x2d4b
00002CFC  6766C745FC000000  mov dword [ebp-0x4],0x0
         -00
00002D05  EB26              jmp short 0x2d2d
00002D07  67668B55FC        mov edx,[ebp-0x4]
00002D0C  67668B4508        mov eax,[ebp+0x8]
00002D11  6601C2            add edx,eax
00002D14  67668B45FC        mov eax,[ebp-0x4]
00002D19  660500560000      add eax,0x5600
00002D1F  67660FB600        movzx eax,byte [eax]
00002D24  678802            mov [edx],al
00002D27  67668345FC01      add dword [ebp-0x4],byte +0x1
00002D2D  66A1B83D          mov eax,[0x3db8]
00002D31  67663945FC        cmp [ebp-0x4],eax
00002D36  7CCF              jl 0x2d07
00002D38  66A1B83D          mov eax,[0x3db8]
00002D3C  6689C2            mov edx,eax
00002D3F  67668B4508        mov eax,[ebp+0x8]
00002D44  6601D0            add eax,edx
00002D47  67C60000          mov byte [eax],0x0
00002D4B  67668B4508        mov eax,[ebp+0x8]
00002D50  66C9              o32 leave
00002D52  66C3              o32 ret
00002D54  6655              push ebp
00002D56  6689E5            mov ebp,esp
00002D59  6657              push edi
00002D5B  6656              push esi
00002D5D  6653              push ebx
00002D5F  6683EC1C          sub esp,byte +0x1c
00002D63  6766C745E4000000  mov dword [ebp-0x1c],0x0
         -00
00002D6C  660FB706A040      movzx eax,word [0x40a0]
00002D72  678945EA          mov [ebp-0x16],ax
00002D76  67660FB745EA      movzx eax,word [ebp-0x16]
00002D7C  6650              push eax
00002D7E  66E8FFEFFFFF      call dword 0x1d83
00002D84  6683C404          add esp,byte +0x4
00002D88  660FB7C0          movzx eax,ax
00002D8C  67668945E4        mov [ebp-0x1c],eax
00002D91  66686C330000      push dword 0x336c
00002D97  66E83EE1FFFF      call dword 0xedb
00002D9D  6683C404          add esp,byte +0x4
00002DA1  66689C330000      push dword 0x339c
00002DA7  66E82EE1FFFF      call dword 0xedb
00002DAD  6683C404          add esp,byte +0x4
00002DB1  6766C745F0000000  mov dword [ebp-0x10],0x0
         -00
00002DBA  E95601            jmp word 0x2f13
00002DBD  660FB706A040      movzx eax,word [0x40a0]
00002DC3  85C0              test ax,ax
00002DC5  7524              jnz 0x2deb
00002DC7  67668B45F0        mov eax,[ebp-0x10]
00002DCC  6683C013          add eax,byte +0x13
00002DD0  660FB7C0          movzx eax,ax
00002DD4  666A01            o32 push byte +0x1
00002DD7  6650              push eax
00002DD9  6668005A0000      push dword 0x5a00
00002DDF  66E834FCFFFF      call dword 0x2a19
00002DE5  6683C40C          add esp,byte +0xc
00002DE9  EB23              jmp short 0x2e0e
00002DEB  67660FB745EA      movzx eax,word [ebp-0x16]
00002DF1  6683C01F          add eax,byte +0x1f
00002DF5  660FB7C0          movzx eax,ax
00002DF9  666A01            o32 push byte +0x1
00002DFC  6650              push eax
00002DFE  6668005A0000      push dword 0x5a00
00002E04  66E80FFCFFFF      call dword 0x2a19
00002E0A  6683C40C          add esp,byte +0xc
00002E0E  660FB706A040      movzx eax,word [0x40a0]
00002E14  85C0              test ax,ax
00002E16  7416              jz 0x2e2e
00002E18  67660FB745EA      movzx eax,word [ebp-0x16]
00002E1E  6650              push eax
00002E20  66E835EFFFFF      call dword 0x1d5b
00002E26  6683C404          add esp,byte +0x4
00002E2A  678945EA          mov [ebp-0x16],ax
00002E2E  6766C745EC000000  mov dword [ebp-0x14],0x0
         -00
00002E37  E9C900            jmp word 0x2f03
00002E3A  67668B45EC        mov eax,[ebp-0x14]
00002E3F  66C1E005          shl eax,byte 0x5
00002E43  6605005A0000      add eax,0x5a00
00002E49  67668945E0        mov [ebp-0x20],eax
00002E4E  67668B45E0        mov eax,[ebp-0x20]
00002E53  67660FB600        movzx eax,byte [eax]
00002E58  84C0              test al,al
00002E5A  0F849E00          jz word 0x2efc
00002E5E  67668B45E0        mov eax,[ebp-0x20]
00002E63  67660FB7401A      movzx eax,word [eax+0x1a]
00002E69  660FB7F0          movzx esi,ax
00002E6D  67668B45E0        mov eax,[ebp-0x20]
00002E72  67668B581C        mov ebx,[eax+0x1c]
00002E77  6668C4400000      push dword 0x40c4
00002E7D  6766FF75E0        push dword [ebp-0x20]
00002E82  66E800F9FFFF      call dword 0x2788
00002E88  6683C408          add esp,byte +0x8
00002E8C  67668945DC        mov [ebp-0x24],eax
00002E91  6668D0400000      push dword 0x40d0
00002E97  6766FF75E0        push dword [ebp-0x20]
00002E9C  66E8A1F7FFFF      call dword 0x2643
00002EA2  6683C408          add esp,byte +0x8
00002EA6  67668945D8        mov [ebp-0x28],eax
00002EAB  6668D8400000      push dword 0x40d8
00002EB1  6766FF75E0        push dword [ebp-0x20]
00002EB6  66E845F6FFFF      call dword 0x2501
00002EBC  6683C408          add esp,byte +0x8
00002EC0  6689C7            mov edi,eax
00002EC3  6668E4400000      push dword 0x40e4
00002EC9  6766FF75E0        push dword [ebp-0x20]
00002ECE  66E8B7F2FFFF      call dword 0x218b
00002ED4  6683C408          add esp,byte +0x8
00002ED8  6656              push esi
00002EDA  6653              push ebx
00002EDC  6766FF75DC        push dword [ebp-0x24]
00002EE1  6766FF75D8        push dword [ebp-0x28]
00002EE6  6657              push edi
00002EE8  6650              push eax
00002EEA  6668C9330000      push dword 0x33c9
00002EF0  66E8E5DFFFFF      call dword 0xedb
00002EF6  6683C41C          add esp,byte +0x1c
00002EFA  EB01              jmp short 0x2efd
00002EFC  90                nop
00002EFD  67668345EC01      add dword [ebp-0x14],byte +0x1
00002F03  6766837DEC0F      cmp dword [ebp-0x14],byte +0xf
00002F09  0F8E2DFF          jng word 0x2e3a
00002F0D  67668345F001      add dword [ebp-0x10],byte +0x1
00002F13  67668B45F0        mov eax,[ebp-0x10]
00002F18  67663B45E4        cmp eax,[ebp-0x1c]
00002F1D  0F8C9CFE          jl word 0x2dbd
00002F21  90                nop
00002F22  67668D65F4        lea esp,[ebp-0xc]
00002F27  665B              pop ebx
00002F29  665E              pop esi
00002F2B  665F              pop edi
00002F2D  665D              pop ebp
00002F2F  66C3              o32 ret
00002F31  6655              push ebp
00002F33  6689E5            mov ebp,esp
00002F36  6683EC08          sub esp,byte +0x8
00002F3A  6766FF7508        push dword [ebp+0x8]
00002F3F  66E844F0FFFF      call dword 0x1f89
00002F45  6683C404          add esp,byte +0x4
00002F49  67668945F8        mov [ebp-0x8],eax
00002F4E  6766837DF8FF      cmp dword [ebp-0x8],byte -0x1
00002F54  7408              jz 0x2f5e
00002F56  6766837DF800      cmp dword [ebp-0x8],byte +0x0
00002F5C  7E09              jng 0x2f67
00002F5E  66B800000000      mov eax,0x0
00002F64  E95101            jmp word 0x30b8
00002F67  6668DC330000      push dword 0x33dc
00002F6D  6766FF7508        push dword [ebp+0x8]
00002F72  66E861E5FFFF      call dword 0x14d9
00002F78  6683C408          add esp,byte +0x8
00002F7C  6685C0            test eax,eax
00002F7F  7547              jnz 0x2fc8
00002F81  66A1B83D          mov eax,[0x3db8]
00002F85  6683E801          sub eax,byte +0x1
00002F89  66A3B83D          mov [0x3db8],eax
00002F8D  EB0C              jmp short 0x2f9b
00002F8F  66A1B83D          mov eax,[0x3db8]
00002F93  6683E801          sub eax,byte +0x1
00002F97  66A3B83D          mov [0x3db8],eax
00002F9B  66A1B83D          mov eax,[0x3db8]
00002F9F  6685C0            test eax,eax
00002FA2  7415              jz 0x2fb9
00002FA4  66A1B83D          mov eax,[0x3db8]
00002FA8  6683E801          sub eax,byte +0x1
00002FAC  67660FB680005600  movzx eax,byte [eax+0x5600]
         -00
00002FB5  3C2F              cmp al,0x2f
00002FB7  75D6              jnz 0x2f8f
00002FB9  66A1B83D          mov eax,[0x3db8]
00002FBD  67C6800056000000  mov byte [eax+0x5600],0x0
00002FC5  E9DF00            jmp word 0x30a7
00002FC8  6668DF330000      push dword 0x33df
00002FCE  6766FF7508        push dword [ebp+0x8]
00002FD3  66E800E5FFFF      call dword 0x14d9
00002FD9  6683C408          add esp,byte +0x8
00002FDD  6685C0            test eax,eax
00002FE0  0F84C300          jz word 0x30a7
00002FE4  6766C745FC000000  mov dword [ebp-0x4],0x0
         -00
00002FED  EB7E              jmp short 0x306d
00002FEF  66A1B83D          mov eax,[0x3db8]
00002FF3  67668D5001        lea edx,[eax+0x1]
00002FF8  668916B83D        mov [0x3db8],edx
00002FFD  67668B4DFC        mov ecx,[ebp-0x4]
00003002  67668B5508        mov edx,[ebp+0x8]
00003007  6601CA            add edx,ecx
0000300A  67660FB612        movzx edx,byte [edx]
0000300F  67889000560000    mov [eax+0x5600],dl
00003016  67668B55FC        mov edx,[ebp-0x4]
0000301B  67668B4508        mov eax,[ebp+0x8]
00003020  6601D0            add eax,edx
00003023  67660FB600        movzx eax,byte [eax]
00003028  3C60              cmp al,0x60
0000302A  7E3B              jng 0x3067
0000302C  67668B55FC        mov edx,[ebp-0x4]
00003031  67668B4508        mov eax,[ebp+0x8]
00003036  6601D0            add eax,edx
00003039  67660FB600        movzx eax,byte [eax]
0000303E  3C7A              cmp al,0x7a
00003040  7F25              jg 0x3067
00003042  66A1B83D          mov eax,[0x3db8]
00003046  6683E801          sub eax,byte +0x1
0000304A  67668B4DFC        mov ecx,[ebp-0x4]
0000304F  67668B5508        mov edx,[ebp+0x8]
00003054  6601CA            add edx,ecx
00003057  67660FB612        movzx edx,byte [edx]
0000305C  6683EA20          sub edx,byte +0x20
00003060  67889000560000    mov [eax+0x5600],dl
00003067  67668345FC01      add dword [ebp-0x4],byte +0x1
0000306D  67668B55FC        mov edx,[ebp-0x4]
00003072  67668B4508        mov eax,[ebp+0x8]
00003077  6601D0            add eax,edx
0000307A  67660FB600        movzx eax,byte [eax]
0000307F  84C0              test al,al
00003081  0F856AFF          jnz word 0x2fef
00003085  66A1B83D          mov eax,[0x3db8]
00003089  67668D5001        lea edx,[eax+0x1]
0000308E  668916B83D        mov [0x3db8],edx
00003093  67C680005600002F  mov byte [eax+0x5600],0x2f
0000309B  66A1B83D          mov eax,[0x3db8]
0000309F  67C6800056000000  mov byte [eax+0x5600],0x0
000030A7  67668B45F8        mov eax,[ebp-0x8]
000030AC  66F7D8            neg eax
000030AF  A3A040            mov [0x40a0],ax
000030B2  66B801000000      mov eax,0x1
000030B8  66C9              o32 leave
000030BA  66C3              o32 ret
000030BC  6655              push ebp
000030BE  6689E5            mov ebp,esp
000030C1  6683EC0C          sub esp,byte +0xc
000030C5  6766FF7508        push dword [ebp+0x8]
000030CA  66E8B9EEFFFF      call dword 0x1f89
000030D0  6683C404          add esp,byte +0x4
000030D4  67668945FC        mov [ebp-0x4],eax
000030D9  6766837DFC00      cmp dword [ebp-0x4],byte +0x0
000030DF  7F09              jg 0x30ea
000030E1  66B800000000      mov eax,0x0
000030E7  E99100            jmp word 0x317b
000030EA  67668B45FC        mov eax,[ebp-0x4]
000030EF  660FB7C0          movzx eax,ax
000030F3  6650              push eax
000030F5  66E888ECFFFF      call dword 0x1d83
000030FB  6683C404          add esp,byte +0x4
000030FF  660FB7C0          movzx eax,ax
00003103  67668945F4        mov [ebp-0xc],eax
00003108  6766C745F8000000  mov dword [ebp-0x8],0x0
         -00
00003111  EB56              jmp short 0x3169
00003113  67668B45FC        mov eax,[ebp-0x4]
00003118  6683C01F          add eax,byte +0x1f
0000311C  660FB7C0          movzx eax,ax
00003120  666A01            o32 push byte +0x1
00003123  6650              push eax
00003125  666800580000      push dword 0x5800
0000312B  66E8E8F8FFFF      call dword 0x2a19
00003131  6683C40C          add esp,byte +0xc
00003135  67668B45FC        mov eax,[ebp-0x4]
0000313A  660FB7C0          movzx eax,ax
0000313E  6650              push eax
00003140  66E815ECFFFF      call dword 0x1d5b
00003146  6683C404          add esp,byte +0x4
0000314A  660FB7C0          movzx eax,ax
0000314E  67668945FC        mov [ebp-0x4],eax
00003153  666800580000      push dword 0x5800
00003159  66E8ACFAFFFF      call dword 0x2c0b
0000315F  6683C404          add esp,byte +0x4
00003163  67668345F801      add dword [ebp-0x8],byte +0x1
00003169  67668B45F8        mov eax,[ebp-0x8]
0000316E  67663B45F4        cmp eax,[ebp-0xc]
00003173  7C9E              jl 0x3113
00003175  66B801000000      mov eax,0x1
0000317B  66C9              o32 leave
0000317D  66C3              o32 ret
0000317F  005374            add [bp+di+0x74],dl
00003182  6561              gs popaw
00003184  6D                insw
00003185  204F53            and [bx+0x53],cl
00003188  207635            and [bp+0x35],dh
0000318B  2E300A            xor [cs:bp+si],cl
0000318E  43                inc bx
0000318F  6F                outsw
00003190  7079              jo 0x320b
00003192  7269              jc 0x31fd
00003194  67687420          push word 0x2074
00003198  286329            sub [bp+di+0x29],ah
0000319B  2032              and [bp+si],dh
0000319D  3031              xor [bx+di],dh
0000319F  352047            xor ax,0x4720
000031A2  61                popaw
000031A3  6F                outsw
000031A4  7962              jns 0x3208
000031A6  37                aaa
000031A7  2E0A5479          or dl,[cs:si+0x79]
000031AB  7065              jo 0x3212
000031AD  2027              and [bx],ah
000031AF  68656C            push word 0x6c65
000031B2  7027              jo 0x31db
000031B4  20666F            and [bp+0x6f],ah
000031B7  7220              jc 0x31d9
000031B9  6D                insw
000031BA  6F                outsw
000031BB  7265              jc 0x3222
000031BD  20696E            and [bx+di+0x6e],ch
000031C0  666F              outsd
000031C2  726D              jc 0x3231
000031C4  61                popaw
000031C5  7469              jz 0x3230
000031C7  6F                outsw
000031C8  6E                outsb
000031C9  2E0A00            or al,[cs:bx+si]
000031CC  25730A            and ax,0xa73
000031CF  007368            add [bp+di+0x68],dh
000031D2  2E636F6D          arpl [cs:bx+0x6d],bp
000031D6  005369            add [bp+di+0x69],dl
000031D9  7A65              jpe 0x3240
000031DB  206F66            and [bx+0x66],ch
000031DE  20426F            and [bp+si+0x6f],al
000031E1  6F                outsw
000031E2  745F              jz 0x3243
000031E4  7365              jnc 0x324b
000031E6  63746F            arpl [si+0x6f],si
000031E9  725F              jc 0x324a
000031EB  743A              jz 0x3227
000031ED  2025              and [di],ah
000031EF  640A00            or al,[fs:bx+si]
000031F2  53                push bx
000031F3  697A65206F        imul di,[bp+si+0x65],word 0x6f20
000031F8  66204669          o32 and [bp+0x69],al
000031FC  6C                insb
000031FD  655F              gs pop di
000031FF  656E              gs outsb
00003201  7472              jz 0x3275
00003203  795F              jns 0x3264
00003205  743A              jz 0x3241
00003207  2025              and [di],ah
00003209  640A00            or al,[fs:bx+si]
0000320C  53                push bx
0000320D  697A65206F        imul di,[bp+si+0x65],word 0x6f20
00003212  66205365          o32 and [bp+di+0x65],dl
00003216  63746F            arpl [si+0x6f],si
00003219  725F              jc 0x327a
0000321B  743A              jz 0x3257
0000321D  2025              and [di],ah
0000321F  640A00            or al,[fs:bx+si]
00003222  53                push bx
00003223  697A65206F        imul di,[bp+si+0x65],word 0x6f20
00003228  66204469          o32 and [si+0x69],al
0000322C  725F              jc 0x328d
0000322E  656E              gs outsb
00003230  7472              jz 0x32a4
00003232  795F              jns 0x3293
00003234  743A              jz 0x3270
00003236  2025              and [di],ah
00003238  640A00            or al,[fs:bx+si]
0000323B  53                push bx
0000323C  697A65206F        imul di,[bp+si+0x65],word 0x6f20
00003241  66204641          o32 and [bp+0x41],al
00003245  54                push sp
00003246  5F                pop di
00003247  743A              jz 0x3283
00003249  2025              and [di],ah
0000324B  640A00            or al,[fs:bx+si]
0000324E  0A00              or al,[bx+si]
00003250  7C2F              jl 0x3281
00003252  2D5C00            sub ax,0x5c
00003255  0820              or [bx+si],ah
00003257  0800              or [bx+si],al
00003259  0A00              or al,[bx+si]
0000325B  003D              add [di],bh
0000325D  203D              and [di],bh
0000325F  210A              and [bp+si],cx
00003261  0000              add [bx+si],al
00003263  003D              add [di],bh
00003265  3D3D3D            cmp ax,0x3d3d
00003268  3D3D3D            cmp ax,0x3d3d
0000326B  3D3D3D            cmp ax,0x3d3d
0000326E  3D3D3D            cmp ax,0x3d3d
00003271  3D3D3D            cmp ax,0x3d3d
00003274  3D3D3D            cmp ax,0x3d3d
00003277  3D3D3D            cmp ax,0x3d3d
0000327A  3D3D3D            cmp ax,0x3d3d
0000327D  3D3D3D            cmp ax,0x3d3d
00003280  3D3D3D            cmp ax,0x3d3d
00003283  3D3D3D            cmp ax,0x3d3d
00003286  3D3D3D            cmp ax,0x3d3d
00003289  3D3D3D            cmp ax,0x3d3d
0000328C  3D3D3D            cmp ax,0x3d3d
0000328F  3D3D3D            cmp ax,0x3d3d
00003292  3D3D3D            cmp ax,0x3d3d
00003295  3D0A00            cmp ax,0xa
00003298  7069              jo 0x3303
0000329A  643A20            cmp ah,[fs:bx+si]
0000329D  256420            and ax,0x2064
000032A0  7C20              jl 0x32c2
000032A2  6E                outsb
000032A3  61                popaw
000032A4  6D                insw
000032A5  653A20            cmp ah,[gs:bx+si]
000032A8  257320            and ax,0x2073
000032AB  7C20              jl 0x32cd
000032AD  7374              jnc 0x3323
000032AF  61                popaw
000032B0  743A              jz 0x32ec
000032B2  2025              and [di],ah
000032B4  64200A            and [fs:bp+si],cl
000032B7  007373            add [bp+di+0x73],dh
000032BA  3A20              cmp ah,[bx+si]
000032BC  257820            and ax,0x2078
000032BF  7C20              jl 0x32e1
000032C1  67733A            jnc 0x32fe
000032C4  2025              and [di],ah
000032C6  7820              js 0x32e8
000032C8  7C20              jl 0x32ea
000032CA  66733A            o32 jnc 0x3307
000032CD  2025              and [di],ah
000032CF  7820              js 0x32f1
000032D1  7C20              jl 0x32f3
000032D3  65733A            gs jnc 0x3310
000032D6  2025              and [di],ah
000032D8  7820              js 0x32fa
000032DA  7C20              jl 0x32fc
000032DC  64733A            fs jnc 0x3319
000032DF  2025              and [di],ah
000032E1  780A              js 0x32ed
000032E3  006469            add [si+0x69],ah
000032E6  3A20              cmp ah,[bx+si]
000032E8  257820            and ax,0x2078
000032EB  7C20              jl 0x330d
000032ED  7369              jnc 0x3358
000032EF  3A20              cmp ah,[bx+si]
000032F1  257820            and ax,0x2078
000032F4  7C20              jl 0x3316
000032F6  62703A            bound si,[bx+si+0x3a]
000032F9  2025              and [di],ah
000032FB  7820              js 0x331d
000032FD  7C20              jl 0x331f
000032FF  7370              jnc 0x3371
00003301  3A20              cmp ah,[bx+si]
00003303  25780A            and ax,0xa78
00003306  0000              add [bx+si],al
00003308  61                popaw
00003309  783A              js 0x3345
0000330B  2025              and [di],ah
0000330D  7820              js 0x332f
0000330F  7C20              jl 0x3331
00003311  62783A            bound di,[bx+si+0x3a]
00003314  2025              and [di],ah
00003316  7820              js 0x3338
00003318  7C20              jl 0x333a
0000331A  63783A            arpl [bx+si+0x3a],di
0000331D  2025              and [di],ah
0000331F  7820              js 0x3341
00003321  7C20              jl 0x3343
00003323  64783A            fs js 0x3360
00003326  2025              and [di],ah
00003328  780A              js 0x3334
0000332A  0000              add [bx+si],al
0000332C  63733A            arpl [bp+di+0x3a],si
0000332F  2025              and [di],ah
00003331  7820              js 0x3353
00003333  7C20              jl 0x3355
00003335  69703A2025        imul si,[bx+si+0x3a],word 0x2520
0000333A  7820              js 0x335c
0000333C  7C20              jl 0x335e
0000333E  666C              o32 insb
00003340  61                popaw
00003341  67733A            jnc 0x337e
00003344  2025              and [di],ah
00003346  7820              js 0x3368
00003348  7C20              jl 0x336a
0000334A  7761              ja 0x33ad
0000334C  69743A2025        imul si,[si+0x3a],word 0x2520
00003351  640A00            or al,[fs:bx+si]
00003354  4C                dec sp
00003355  41                inc cx
00003356  42                inc dx
00003357  45                inc bp
00003358  4C                dec sp
00003359  2020              and [bx+si],ah
0000335B  2000              and [bx+si],al
0000335D  44                inc sp
0000335E  49                dec cx
0000335F  52                push dx
00003360  2020              and [bx+si],ah
00003362  2020              and [bx+si],ah
00003364  2000              and [bx+si],al
00003366  0A00              or al,[bx+si]
00003368  256300            and ax,0x63
0000336B  004E61            add [bp+0x61],cl
0000336E  6D                insw
0000336F  652020            and [gs:bx+si],ah
00003372  2020              and [bx+si],ah
00003374  2020              and [bx+si],ah
00003376  2020              and [bx+si],ah
00003378  204174            and [bx+di+0x74],al
0000337B  7472              jz 0x33ef
0000337D  6962202020        imul sp,[bp+si+0x20],word 0x2020
00003382  54                push sp
00003383  696D652020        imul bp,[di+0x65],word 0x2020
00003388  44                inc sp
00003389  61                popaw
0000338A  7465              jz 0x33f1
0000338C  2020              and [bx+si],ah
0000338E  2020              and [bx+si],ah
00003390  2020              and [bx+si],ah
00003392  205369            and [bp+di+0x69],dl
00003395  7A65              jpe 0x33fc
00003397  0A00              or al,[bx+si]
00003399  0000              add [bx+si],al
0000339B  002D              add [di],ch
0000339D  2D2D2D            sub ax,0x2d2d
000033A0  2D2D2D            sub ax,0x2d2d
000033A3  2D2D2D            sub ax,0x2d2d
000033A6  2D2D2D            sub ax,0x2d2d
000033A9  2D2D2D            sub ax,0x2d2d
000033AC  2D2D2D            sub ax,0x2d2d
000033AF  2D2D2D            sub ax,0x2d2d
000033B2  2D2D2D            sub ax,0x2d2d
000033B5  2D2D2D            sub ax,0x2d2d
000033B8  2D2D2D            sub ax,0x2d2d
000033BB  2D2D2D            sub ax,0x2d2d
000033BE  2D2D2D            sub ax,0x2d2d
000033C1  2D2D2D            sub ax,0x2d2d
000033C4  2D2D2D            sub ax,0x2d2d
000033C7  0A00              or al,[bx+si]
000033C9  257320            and ax,0x2073
000033CC  257320            and ax,0x2073
000033CF  257320            and ax,0x2073
000033D2  257320            and ax,0x2073
000033D5  256420            and ax,0x2064
000033D8  25640A            and ax,0xa64
000033DB  002E2E00          add [0x2e],ch
000033DF  2E0000            add [cs:bx+si],al
000033E2  0000              add [bx+si],al
000033E4  1400              adc al,0x0
000033E6  0000              add [bx+si],al
000033E8  0000              add [bx+si],al
000033EA  0000              add [bx+si],al
000033EC  017A52            add [bp+si+0x52],di
000033EF  0001              add [bx+di],al
000033F1  7C08              jl 0x33fb
000033F3  011B              add [bp+di],bx
000033F5  0C04              or al,0x4
000033F7  0488              add al,0x88
000033F9  0100              add [bx+si],ax
000033FB  001C              add [si],bl
000033FD  0000              add [bx+si],al
000033FF  001C              add [si],bl
00003401  0000              add [bx+si],al
00003403  0007              add [bx],al
00003405  CC                int3
00003406  FF                db 0xff
00003407  FF4B00            dec word [bp+di+0x0]
0000340A  0000              add [bx+si],al
0000340C  00420E            add [bp+si+0xe],al
0000340F  08850243          or [di+0x4302],al
00003413  0D0502            or ax,0x205
00003416  44                inc sp
00003417  C50C              lds cx,[si]
00003419  0404              add al,0x4
0000341B  001C              add [si],bl
0000341D  0000              add [bx+si],al
0000341F  003C              add [si],bh
00003421  0000              add [bx+si],al
00003423  0032              add [bp+si],dh
00003425  CC                int3
00003426  FF                db 0xff
00003427  FF8F0000          dec word [bx+0x0]
0000342B  0000              add [bx+si],al
0000342D  42                inc dx
0000342E  0E                push cs
0000342F  08850243          or [di+0x4302],al
00003433  0D0502            or ax,0x205
00003436  88C5              mov ch,al
00003438  0C04              or al,0x4
0000343A  0400              add al,0x0
0000343C  1C00              sbb al,0x0
0000343E  0000              add [bx+si],al
00003440  5C                pop sp
00003441  0000              add [bx+si],al
00003443  00A1CCFF          add [bx+di-0x34],ah
00003447  FF850000          inc word [di+0x0]
0000344B  0000              add [bx+si],al
0000344D  42                inc dx
0000344E  0E                push cs
0000344F  08850243          or [di+0x4302],al
00003453  0D0502            or ax,0x205
00003456  7EC5              jng 0x341d
00003458  0C04              or al,0x4
0000345A  0400              add al,0x0
0000345C  1400              adc al,0x0
0000345E  0000              add [bx+si],al
00003460  0000              add [bx+si],al
00003462  0000              add [bx+si],al
00003464  017A52            add [bp+si+0x52],di
00003467  0001              add [bx+di],al
00003469  7C08              jl 0x3473
0000346B  011B              add [bp+di],bx
0000346D  0C04              or al,0x4
0000346F  0488              add al,0x88
00003471  0100              add [bx+si],ax
00003473  001C              add [si],bl
00003475  0000              add [bx+si],al
00003477  001C              add [si],bl
00003479  0000              add [bx+si],al
0000347B  00EE              add dh,ch
0000347D  CC                int3
0000347E  FF                db 0xff
0000347F  FF                db 0xff
00003480  BC0000            mov sp,0x0
00003483  0000              add [bx+si],al
00003485  42                inc dx
00003486  0E                push cs
00003487  08850243          or [di+0x4302],al
0000348B  0D0502            or ax,0x205
0000348E  B5C5              mov ch,0xc5
00003490  0C04              or al,0x4
00003492  0400              add al,0x0
00003494  1C00              sbb al,0x0
00003496  0000              add [bx+si],al
00003498  3C00              cmp al,0x0
0000349A  0000              add [bx+si],al
0000349C  8ACD              mov cl,ch
0000349E  FF                db 0xff
0000349F  FFA40000          jmp word [si+0x0]
000034A3  0000              add [bx+si],al
000034A5  42                inc dx
000034A6  0E                push cs
000034A7  08850243          or [di+0x4302],al
000034AB  0D0502            or ax,0x205
000034AE  9D                popfw
000034AF  C50C              lds cx,[si]
000034B1  0404              add al,0x4
000034B3  001C              add [si],bl
000034B5  0000              add [bx+si],al
000034B7  005C00            add [si+0x0],bl
000034BA  0000              add [bx+si],al
000034BC  0E                push cs
000034BD  CE                into
000034BE  FF                db 0xff
000034BF  FF4201            inc word [bp+si+0x1]
000034C2  0000              add [bx+si],al
000034C4  00420E            add [bp+si+0xe],al
000034C7  08850243          or [di+0x4302],al
000034CB  0D0503            or ax,0x305
000034CE  3B01              cmp ax,[bx+di]
000034D0  C50C              lds cx,[si]
000034D2  0404              add al,0x4
000034D4  1C00              sbb al,0x0
000034D6  0000              add [bx+si],al
000034D8  7C00              jl 0x34da
000034DA  0000              add [bx+si],al
000034DC  30CF              xor bh,cl
000034DE  FF                db 0xff
000034DF  FF                db 0xff
000034E0  3F                aas
000034E1  0000              add [bx+si],al
000034E3  0000              add [bx+si],al
000034E5  42                inc dx
000034E6  0E                push cs
000034E7  08850243          or [di+0x4302],al
000034EB  0D0578            or ax,0x7805
000034EE  C50C              lds cx,[si]
000034F0  0404              add al,0x4
000034F2  0000              add [bx+si],al
000034F4  1C00              sbb al,0x0
000034F6  0000              add [bx+si],al
000034F8  9C                pushfw
000034F9  0000              add [bx+si],al
000034FB  004FCF            add [bx-0x31],cl
000034FE  FF                db 0xff
000034FF  FF880000          dec word [bx+si+0x0]
00003503  0000              add [bx+si],al
00003505  42                inc dx
00003506  0E                push cs
00003507  08850243          or [di+0x4302],al
0000350B  0D0502            or ax,0x205
0000350E  81C50C04          add bp,0x40c
00003512  0400              add al,0x0
00003514  1C00              sbb al,0x0
00003516  0000              add [bx+si],al
00003518  BC0000            mov sp,0x0
0000351B  00B7CFFF          add [bx-0x31],dh
0000351F  FF20              jmp word [bx+si]
00003521  0200              add al,[bx+si]
00003523  0000              add [bx+si],al
00003525  42                inc dx
00003526  0E                push cs
00003527  08850243          or [di+0x4302],al
0000352B  0D0503            or ax,0x305
0000352E  1902              sbb [bp+si],ax
00003530  C50C              lds cx,[si]
00003532  0404              add al,0x4
00003534  1C00              sbb al,0x0
00003536  0000              add [bx+si],al
00003538  DC00              fadd qword [bx+si]
0000353A  0000              add [bx+si],al
0000353C  B7D1              mov bh,0xd1
0000353E  FF                db 0xff
0000353F  FF1E0200          call word far [0x2]
00003543  0000              add [bx+si],al
00003545  42                inc dx
00003546  0E                push cs
00003547  08850243          or [di+0x4302],al
0000354B  0D0503            or ax,0x305
0000354E  17                pop ss
0000354F  02C5              add al,ch
00003551  0C04              or al,0x4
00003553  041C              add al,0x1c
00003555  0000              add [bx+si],al
00003557  00FC              add ah,bh
00003559  0000              add [bx+si],al
0000355B  00B5D3FF          add [di-0x2d],dh
0000355F  FF03              inc word [bp+di]
00003561  0100              add [bx+si],ax
00003563  0000              add [bx+si],al
00003565  42                inc dx
00003566  0E                push cs
00003567  08850243          or [di+0x4302],al
0000356B  0D0502            or ax,0x205
0000356E  FC                cld
0000356F  C50C              lds cx,[si]
00003571  0404              add al,0x4
00003573  0014              add [si],dl
00003575  0000              add [bx+si],al
00003577  0000              add [bx+si],al
00003579  0000              add [bx+si],al
0000357B  0001              add [bx+di],al
0000357D  7A52              jpe 0x35d1
0000357F  0001              add [bx+di],al
00003581  7C08              jl 0x358b
00003583  011B              add [bp+di],bx
00003585  0C04              or al,0x4
00003587  0488              add al,0x88
00003589  0100              add [bx+si],ax
0000358B  001C              add [si],bl
0000358D  0000              add [bx+si],al
0000358F  001C              add [si],bl
00003591  0000              add [bx+si],al
00003593  00BBD5FF          add [bp+di-0x2b],bh
00003597  FF1F              call word far [bx]
00003599  0000              add [bx+si],al
0000359B  0000              add [bx+si],al
0000359D  42                inc dx
0000359E  0E                push cs
0000359F  08850243          or [di+0x4302],al
000035A3  0D0558            or ax,0x5805
000035A6  C50C              lds cx,[si]
000035A8  0404              add al,0x4
000035AA  0000              add [bx+si],al
000035AC  2000              and [bx+si],al
000035AE  0000              add [bx+si],al
000035B0  3C00              cmp al,0x0
000035B2  0000              add [bx+si],al
000035B4  BAD5FF            mov dx,0xffd5
000035B7  FF360000          push word [0x0]
000035BB  0000              add [bx+si],al
000035BD  42                inc dx
000035BE  0E                push cs
000035BF  08850243          or [di+0x4302],al
000035C3  0D0546            or ax,0x4605
000035C6  830367            add word [bp+di],byte +0x67
000035C9  C3                ret
000035CA  42                inc dx
000035CB  C50C              lds cx,[si]
000035CD  0404              add al,0x4
000035CF  0020              add [bx+si],ah
000035D1  0000              add [bx+si],al
000035D3  006000            add [bx+si+0x0],ah
000035D6  0000              add [bx+si],al
000035D8  CC                int3
000035D9  D5FF              aad 0xff
000035DB  FF4500            inc word [di+0x0]
000035DE  0000              add [bx+si],al
000035E0  00420E            add [bp+si+0xe],al
000035E3  08850243          or [di+0x4302],al
000035E7  0D0546            or ax,0x4605
000035EA  830376            add word [bp+di],byte +0x76
000035ED  C3                ret
000035EE  42                inc dx
000035EF  C50C              lds cx,[si]
000035F1  0404              add al,0x4
000035F3  001C              add [si],bl
000035F5  0000              add [bx+si],al
000035F7  00840000          add [si+0x0],al
000035FB  00ED              add ch,ch
000035FD  D5FF              aad 0xff
000035FF  FF7700            push word [bx+0x0]
00003602  0000              add [bx+si],al
00003604  00420E            add [bp+si+0xe],al
00003607  08850243          or [di+0x4302],al
0000360B  0D0502            or ax,0x205
0000360E  70C5              jo 0x35d5
00003610  0C04              or al,0x4
00003612  0400              add al,0x0
00003614  1C00              sbb al,0x0
00003616  0000              add [bx+si],al
00003618  A4                movsb
00003619  0000              add [bx+si],al
0000361B  0044D6            add [si-0x2a],al
0000361E  FF                db 0xff
0000361F  FF5500            call word [di+0x0]
00003622  0000              add [bx+si],al
00003624  00420E            add [bp+si+0xe],al
00003627  08850243          or [di+0x4302],al
0000362B  0D0502            or ax,0x205
0000362E  4E                dec si
0000362F  C50C              lds cx,[si]
00003631  0404              add al,0x4
00003633  001C              add [si],bl
00003635  0000              add [bx+si],al
00003637  00C4              add ah,al
00003639  0000              add [bx+si],al
0000363B  0079D6            add [bx+di-0x2a],bh
0000363E  FF                db 0xff
0000363F  FFB10000          push word [bx+di+0x0]
00003643  0000              add [bx+si],al
00003645  42                inc dx
00003646  0E                push cs
00003647  08850243          or [di+0x4302],al
0000364B  0D0502            or ax,0x205
0000364E  AA                stosb
0000364F  C50C              lds cx,[si]
00003651  0404              add al,0x4
00003653  001C              add [si],bl
00003655  0000              add [bx+si],al
00003657  00E4              add ah,ah
00003659  0000              add [bx+si],al
0000365B  000A              add [bp+si],cl
0000365D  D7                xlatb
0000365E  FF                db 0xff
0000365F  FF6B00            jmp word far [bp+di+0x0]
00003662  0000              add [bx+si],al
00003664  00420E            add [bp+si+0xe],al
00003667  08850243          or [di+0x4302],al
0000366B  0D0502            or ax,0x205
0000366E  64C50C            lds cx,[fs:si]
00003671  0404              add al,0x4
00003673  001C              add [si],bl
00003675  0000              add [bx+si],al
00003677  0004              add [si],al
00003679  0100              add [bx+si],ax
0000367B  0055D7            add [di-0x29],dl
0000367E  FF                db 0xff
0000367F  FF0A              dec word [bp+si]
00003681  0100              add [bx+si],ax
00003683  0000              add [bx+si],al
00003685  42                inc dx
00003686  0E                push cs
00003687  08850243          or [di+0x4302],al
0000368B  0D0503            or ax,0x305
0000368E  0301              add ax,[bx+di]
00003690  C50C              lds cx,[si]
00003692  0404              add al,0x4
00003694  2000              and [bx+si],al
00003696  0000              add [bx+si],al
00003698  2401              and al,0x1
0000369A  0000              add [bx+si],al
0000369C  3F                aas
0000369D  D8FF              fdivr st7
0000369F  FF30              push word [bx+si]
000036A1  0100              add [bx+si],ax
000036A3  0000              add [bx+si],al
000036A5  42                inc dx
000036A6  0E                push cs
000036A7  08850243          or [di+0x4302],al
000036AB  0D0546            or ax,0x4605
000036AE  830303            add word [bp+di],byte +0x3
000036B1  2301              and ax,[bx+di]
000036B3  C5                db 0xc5
000036B4  C3                ret
000036B5  0C04              or al,0x4
000036B7  0424              add al,0x24
000036B9  0000              add [bx+si],al
000036BB  004801            add [bx+si+0x1],cl
000036BE  0000              add [bx+si],al
000036C0  4B                dec bx
000036C1  D9FF              fcos
000036C3  FFE0              jmp ax
000036C5  0100              add [bx+si],ax
000036C7  0000              add [bx+si],al
000036C9  42                inc dx
000036CA  0E                push cs
000036CB  08850243          or [di+0x4302],al
000036CF  0D0546            or ax,0x4605
000036D2  830303            add word [bp+di],byte +0x3
000036D5  D101              rol word [bx+di],1
000036D7  C3                ret
000036D8  42                inc dx
000036D9  C50C              lds cx,[si]
000036DB  0404              add al,0x4
000036DD  0000              add [bx+si],al
000036DF  0014              add [si],dl
000036E1  0000              add [bx+si],al
000036E3  0000              add [bx+si],al
000036E5  0000              add [bx+si],al
000036E7  0001              add [bx+di],al
000036E9  7A52              jpe 0x373d
000036EB  0001              add [bx+di],al
000036ED  7C08              jl 0x36f7
000036EF  011B              add [bp+di],bx
000036F1  0C04              or al,0x4
000036F3  0488              add al,0x88
000036F5  0100              add [bx+si],ax
000036F7  001C              add [si],bl
000036F9  0000              add [bx+si],al
000036FB  001C              add [si],bl
000036FD  0000              add [bx+si],al
000036FF  00EB              add bl,ch
00003701  DA                db 0xda
00003702  FF                db 0xff
00003703  FF12              call word [bp+si]
00003705  0000              add [bx+si],al
00003707  0000              add [bx+si],al
00003709  42                inc dx
0000370A  0E                push cs
0000370B  08850243          or [di+0x4302],al
0000370F  0D054B            or ax,0x4b05
00003712  C50C              lds cx,[si]
00003714  0404              add al,0x4
00003716  0000              add [bx+si],al
00003718  2000              and [bx+si],al
0000371A  0000              add [bx+si],al
0000371C  3C00              cmp al,0x0
0000371E  0000              add [bx+si],al
00003720  DDDA              fstp st2
00003722  FF                db 0xff
00003723  FF30              push word [bx+si]
00003725  0000              add [bx+si],al
00003727  0000              add [bx+si],al
00003729  42                inc dx
0000372A  0E                push cs
0000372B  08850243          or [di+0x4302],al
0000372F  0D0546            or ax,0x4605
00003732  830361            add word [bp+di],byte +0x61
00003735  C3                ret
00003736  42                inc dx
00003737  C50C              lds cx,[si]
00003739  0404              add al,0x4
0000373B  0020              add [bx+si],ah
0000373D  0000              add [bx+si],al
0000373F  006000            add [bx+si+0x0],ah
00003742  0000              add [bx+si],al
00003744  E9DAFF            jmp word 0x3721
00003747  FF                db 0xff
00003748  3C00              cmp al,0x0
0000374A  0000              add [bx+si],al
0000374C  00420E            add [bp+si+0xe],al
0000374F  08850243          or [di+0x4302],al
00003753  0D0546            or ax,0x4605
00003756  83036D            add word [bp+di],byte +0x6d
00003759  C3                ret
0000375A  42                inc dx
0000375B  C50C              lds cx,[si]
0000375D  0404              add al,0x4
0000375F  0020              add [bx+si],ah
00003761  0000              add [bx+si],al
00003763  00840000          add [si+0x0],al
00003767  0001              add [bx+di],al
00003769  DB                db 0xdb
0000376A  FF                db 0xff
0000376B  FF33              push word [bp+di]
0000376D  0000              add [bx+si],al
0000376F  0000              add [bx+si],al
00003771  42                inc dx
00003772  0E                push cs
00003773  08850243          or [di+0x4302],al
00003777  0D0546            or ax,0x4605
0000377A  830364            add word [bp+di],byte +0x64
0000377D  C3                ret
0000377E  42                inc dx
0000377F  C50C              lds cx,[si]
00003781  0404              add al,0x4
00003783  0020              add [bx+si],ah
00003785  0000              add [bx+si],al
00003787  00A80000          add [bx+si+0x0],ch
0000378B  0010              add [bx+si],dl
0000378D  DB                db 0xdb
0000378E  FF                db 0xff
0000378F  FF360000          push word [0x0]
00003793  0000              add [bx+si],al
00003795  42                inc dx
00003796  0E                push cs
00003797  08850243          or [di+0x4302],al
0000379B  0D0546            or ax,0x4605
0000379E  830367            add word [bp+di],byte +0x67
000037A1  C3                ret
000037A2  42                inc dx
000037A3  C50C              lds cx,[si]
000037A5  0404              add al,0x4
000037A7  001C              add [si],bl
000037A9  0000              add [bx+si],al
000037AB  00CC              add ah,cl
000037AD  0000              add [bx+si],al
000037AF  0022              add [bp+si],ah
000037B1  DB                db 0xdb
000037B2  FF                db 0xff
000037B3  FF2B              jmp word far [bp+di]
000037B5  0000              add [bx+si],al
000037B7  0000              add [bx+si],al
000037B9  42                inc dx
000037BA  0E                push cs
000037BB  08850243          or [di+0x4302],al
000037BF  0D0564            or ax,0x6405
000037C2  C50C              lds cx,[si]
000037C4  0404              add al,0x4
000037C6  0000              add [bx+si],al
000037C8  2000              and [bx+si],al
000037CA  0000              add [bx+si],al
000037CC  EC                in al,dx
000037CD  0000              add [bx+si],al
000037CF  002D              add [di],ch
000037D1  DB                db 0xdb
000037D2  FF                db 0xff
000037D3  FF360000          push word [0x0]
000037D7  0000              add [bx+si],al
000037D9  42                inc dx
000037DA  0E                push cs
000037DB  08850243          or [di+0x4302],al
000037DF  0D0546            or ax,0x4605
000037E2  830367            add word [bp+di],byte +0x67
000037E5  C3                ret
000037E6  42                inc dx
000037E7  C50C              lds cx,[si]
000037E9  0404              add al,0x4
000037EB  002C              add [si],ch
000037ED  0000              add [bx+si],al
000037EF  0010              add [bx+si],dl
000037F1  0100              add [bx+si],ax
000037F3  003F              add [bx],bh
000037F5  DB                db 0xdb
000037F6  FF                db 0xff
000037F7  FF2A              jmp word far [bp+si]
000037F9  0100              add [bx+si],ax
000037FB  0000              add [bx+si],al
000037FD  42                inc dx
000037FE  0E                push cs
000037FF  08850243          or [di+0x4302],al
00003803  0D054A            or ax,0x4a05
00003806  8703              xchg ax,[bp+di]
00003808  8604              xchg al,[si]
0000380A  830503            add word [di],byte +0x3
0000380D  1301              adc ax,[bx+di]
0000380F  C3                ret
00003810  42                inc dx
00003811  C642C742          mov byte [bp+si-0x39],0x42
00003815  C50C              lds cx,[si]
00003817  0404              add al,0x4
00003819  0000              add [bx+si],al
0000381B  001C              add [si],bl
0000381D  0000              add [bx+si],al
0000381F  004001            add [bx+si+0x1],al
00003822  0000              add [bx+si],al
00003824  39DC              cmp sp,bx
00003826  FF                db 0xff
00003827  FF                db 0xff
00003828  7C00              jl 0x382a
0000382A  0000              add [bx+si],al
0000382C  00420E            add [bp+si+0xe],al
0000382F  08850243          or [di+0x4302],al
00003833  0D0502            or ax,0x205
00003836  75C5              jnz 0x37fd
00003838  0C04              or al,0x4
0000383A  0400              add al,0x0
0000383C  1C00              sbb al,0x0
0000383E  0000              add [bx+si],al
00003840  60                pushaw
00003841  0100              add [bx+si],ax
00003843  0095DCFF          add [di-0x24],dl
00003847  FF                db 0xff
00003848  7B00              jpo 0x384a
0000384A  0000              add [bx+si],al
0000384C  00420E            add [bp+si+0xe],al
0000384F  08850243          or [di+0x4302],al
00003853  0D0502            or ax,0x205
00003856  74C5              jz 0x381d
00003858  0C04              or al,0x4
0000385A  0400              add al,0x0
0000385C  1C00              sbb al,0x0
0000385E  0000              add [bx+si],al
00003860  800100            add byte [bx+di],0x0
00003863  00F0              add al,dh
00003865  DCFF              fdiv to st7
00003867  FF4F00            dec word [bx+0x0]
0000386A  0000              add [bx+si],al
0000386C  00420E            add [bp+si+0xe],al
0000386F  08850243          or [di+0x4302],al
00003873  0D0502            or ax,0x205
00003876  48                dec ax
00003877  C50C              lds cx,[si]
00003879  0404              add al,0x4
0000387B  001C              add [si],bl
0000387D  0000              add [bx+si],al
0000387F  00A00100          add [bx+si+0x1],ah
00003883  001F              add [bx],bl
00003885  DD                db 0xdd
00003886  FF                db 0xff
00003887  FF4600            inc word [bp+0x0]
0000388A  0000              add [bx+si],al
0000388C  00420E            add [bp+si+0xe],al
0000388F  08850243          or [di+0x4302],al
00003893  0D057F            or ax,0x7f05
00003896  C50C              lds cx,[si]
00003898  0404              add al,0x4
0000389A  0000              add [bx+si],al
0000389C  1400              adc al,0x0
0000389E  0000              add [bx+si],al
000038A0  0000              add [bx+si],al
000038A2  0000              add [bx+si],al
000038A4  017A52            add [bp+si+0x52],di
000038A7  0001              add [bx+di],al
000038A9  7C08              jl 0x38b3
000038AB  011B              add [bp+di],bx
000038AD  0C04              or al,0x4
000038AF  0488              add al,0x88
000038B1  0100              add [bx+si],ax
000038B3  001C              add [si],bl
000038B5  0000              add [bx+si],al
000038B7  001C              add [si],bl
000038B9  0000              add [bx+si],al
000038BB  00BEDDFF          add [bp-0x23],bh
000038BF  FF360000          push word [0x0]
000038C3  0000              add [bx+si],al
000038C5  42                inc dx
000038C6  0E                push cs
000038C7  08850243          or [di+0x4302],al
000038CB  0D056F            or ax,0x6f05
000038CE  C50C              lds cx,[si]
000038D0  0404              add al,0x4
000038D2  0000              add [bx+si],al
000038D4  1C00              sbb al,0x0
000038D6  0000              add [bx+si],al
000038D8  3C00              cmp al,0x0
000038DA  0000              add [bx+si],al
000038DC  D4DD              aam 0xdd
000038DE  FF                db 0xff
000038DF  FF360000          push word [0x0]
000038E3  0000              add [bx+si],al
000038E5  42                inc dx
000038E6  0E                push cs
000038E7  08850243          or [di+0x4302],al
000038EB  0D056F            or ax,0x6f05
000038EE  C50C              lds cx,[si]
000038F0  0404              add al,0x4
000038F2  0000              add [bx+si],al
000038F4  1C00              sbb al,0x0
000038F6  0000              add [bx+si],al
000038F8  5C                pop sp
000038F9  0000              add [bx+si],al
000038FB  00EA              add dl,ch
000038FD  DD                db 0xdd
000038FE  FF                db 0xff
000038FF  FF5700            call word [bx+0x0]
00003902  0000              add [bx+si],al
00003904  00420E            add [bp+si+0xe],al
00003907  08850243          or [di+0x4302],al
0000390B  0D0502            or ax,0x205
0000390E  50                push ax
0000390F  C50C              lds cx,[si]
00003911  0404              add al,0x4
00003913  001C              add [si],bl
00003915  0000              add [bx+si],al
00003917  007C00            add [si+0x0],bh
0000391A  0000              add [bx+si],al
0000391C  21DE              and si,bx
0000391E  FF                db 0xff
0000391F  FF6800            jmp word far [bx+si+0x0]
00003922  0000              add [bx+si],al
00003924  00420E            add [bp+si+0xe],al
00003927  08850243          or [di+0x4302],al
0000392B  0D0502            or ax,0x205
0000392E  61                popaw
0000392F  C50C              lds cx,[si]
00003931  0404              add al,0x4
00003933  001C              add [si],bl
00003935  0000              add [bx+si],al
00003937  009C0000          add [si+0x0],bl
0000393B  0069DE            add [bx+di-0x22],ch
0000393E  FF                db 0xff
0000393F  FF0E0000          dec word [0x0]
00003943  0000              add [bx+si],al
00003945  42                inc dx
00003946  0E                push cs
00003947  08850243          or [di+0x4302],al
0000394B  0D0547            or ax,0x4705
0000394E  C50C              lds cx,[si]
00003950  0404              add al,0x4
00003952  0000              add [bx+si],al
00003954  1C00              sbb al,0x0
00003956  0000              add [bx+si],al
00003958  BC0000            mov sp,0x0
0000395B  0057DE            add [bx-0x22],dl
0000395E  FF                db 0xff
0000395F  FF0C              dec word [si]
00003961  0000              add [bx+si],al
00003963  0000              add [bx+si],al
00003965  42                inc dx
00003966  0E                push cs
00003967  08850243          or [di+0x4302],al
0000396B  0D0545            or ax,0x4505
0000396E  C50C              lds cx,[si]
00003970  0404              add al,0x4
00003972  0000              add [bx+si],al
00003974  1C00              sbb al,0x0
00003976  0000              add [bx+si],al
00003978  DC00              fadd qword [bx+si]
0000397A  0000              add [bx+si],al
0000397C  43                inc bx
0000397D  DEFF              fdivp st7
0000397F  FFA20100          jmp word [bp+si+0x1]
00003983  0000              add [bx+si],al
00003985  42                inc dx
00003986  0E                push cs
00003987  08850243          or [di+0x4302],al
0000398B  0D0503            or ax,0x305
0000398E  9B01C5            wait add bp,ax
00003991  0C04              or al,0x4
00003993  0428              add al,0x28
00003995  0000              add [bx+si],al
00003997  00FC              add ah,bh
00003999  0000              add [bx+si],al
0000399B  00C5              add ch,al
0000399D  DF                db 0xdf
0000399E  FF                db 0xff
0000399F  FF7601            push word [bp+0x1]
000039A2  0000              add [bx+si],al
000039A4  00420E            add [bp+si+0xe],al
000039A7  08850243          or [di+0x4302],al
000039AB  0D0544            or ax,0x4405
000039AE  8603              xchg al,[bp+di]
000039B0  830403            add word [si],byte +0x3
000039B3  6701C3            a32 add bx,ax
000039B6  42                inc dx
000039B7  C642C50C          mov byte [bp+si-0x3b],0xc
000039BB  0404              add al,0x4
000039BD  0000              add [bx+si],al
000039BF  0014              add [si],dl
000039C1  0000              add [bx+si],al
000039C3  0000              add [bx+si],al
000039C5  0000              add [bx+si],al
000039C7  0001              add [bx+di],al
000039C9  7A52              jpe 0x3a1d
000039CB  0001              add [bx+di],al
000039CD  7C08              jl 0x39d7
000039CF  011B              add [bp+di],bx
000039D1  0C04              or al,0x4
000039D3  0488              add al,0x88
000039D5  0100              add [bx+si],ax
000039D7  0020              add [bx+si],ah
000039D9  0000              add [bx+si],al
000039DB  001C              add [si],bl
000039DD  0000              add [bx+si],al
000039DF  00F7              add bh,dh
000039E1  E0FF              loopne 0x39e2
000039E3  FF360000          push word [0x0]
000039E7  0000              add [bx+si],al
000039E9  42                inc dx
000039EA  0E                push cs
000039EB  08850243          or [di+0x4302],al
000039EF  0D0546            or ax,0x4605
000039F2  830367            add word [bp+di],byte +0x67
000039F5  C3                ret
000039F6  42                inc dx
000039F7  C50C              lds cx,[si]
000039F9  0404              add al,0x4
000039FB  001C              add [si],bl
000039FD  0000              add [bx+si],al
000039FF  004000            add [bx+si+0x0],al
00003A02  0000              add [bx+si],al
00003A04  09E1              or cx,sp
00003A06  FF                db 0xff
00003A07  FF6500            jmp word [di+0x0]
00003A0A  0000              add [bx+si],al
00003A0C  00420E            add [bp+si+0xe],al
00003A0F  08850243          or [di+0x4302],al
00003A13  0D0502            or ax,0x205
00003A16  5E                pop si
00003A17  C50C              lds cx,[si]
00003A19  0404              add al,0x4
00003A1B  001C              add [si],bl
00003A1D  0000              add [bx+si],al
00003A1F  006000            add [bx+si+0x0],ah
00003A22  0000              add [bx+si],al
00003A24  4E                dec si
00003A25  E1FF              loope 0x3a26
00003A27  FF20              jmp word [bx+si]
00003A29  0000              add [bx+si],al
00003A2B  0000              add [bx+si],al
00003A2D  42                inc dx
00003A2E  0E                push cs
00003A2F  08850243          or [di+0x4302],al
00003A33  0D0559            or ax,0x5905
00003A36  C50C              lds cx,[si]
00003A38  0404              add al,0x4
00003A3A  0000              add [bx+si],al
00003A3C  1C00              sbb al,0x0
00003A3E  0000              add [bx+si],al
00003A40  800000            add byte [bx+si],0x0
00003A43  004EE1            add [bp-0x1f],cl
00003A46  FF                db 0xff
00003A47  FF6B00            jmp word far [bp+di+0x0]
00003A4A  0000              add [bx+si],al
00003A4C  00420E            add [bp+si+0xe],al
00003A4F  08850243          or [di+0x4302],al
00003A53  0D0502            or ax,0x205
00003A56  64C50C            lds cx,[fs:si]
00003A59  0404              add al,0x4
00003A5B  001C              add [si],bl
00003A5D  0000              add [bx+si],al
00003A5F  00A00000          add [bx+si+0x0],ah
00003A63  0099E1FF          add [bx+di-0x1f],bl
00003A67  FF6B00            jmp word far [bp+di+0x0]
00003A6A  0000              add [bx+si],al
00003A6C  00420E            add [bp+si+0xe],al
00003A6F  08850243          or [di+0x4302],al
00003A73  0D0502            or ax,0x205
00003A76  64C50C            lds cx,[fs:si]
00003A79  0404              add al,0x4
00003A7B  001C              add [si],bl
00003A7D  0000              add [bx+si],al
00003A7F  00C0              add al,al
00003A81  0000              add [bx+si],al
00003A83  00E4              add ah,ah
00003A85  E1FF              loope 0x3a86
00003A87  FF20              jmp word [bx+si]
00003A89  0000              add [bx+si],al
00003A8B  0000              add [bx+si],al
00003A8D  42                inc dx
00003A8E  0E                push cs
00003A8F  08850243          or [di+0x4302],al
00003A93  0D0559            or ax,0x5905
00003A96  C50C              lds cx,[si]
00003A98  0404              add al,0x4
00003A9A  0000              add [bx+si],al
00003A9C  1C00              sbb al,0x0
00003A9E  0000              add [bx+si],al
00003AA0  E000              loopne 0x3aa2
00003AA2  0000              add [bx+si],al
00003AA4  E4E1              in al,0xe1
00003AA6  FF                db 0xff
00003AA7  FF                db 0xff
00003AA8  3A00              cmp al,[bx+si]
00003AAA  0000              add [bx+si],al
00003AAC  00420E            add [bp+si+0xe],al
00003AAF  08850243          or [di+0x4302],al
00003AB3  0D0573            or ax,0x7305
00003AB6  C50C              lds cx,[si]
00003AB8  0404              add al,0x4
00003ABA  0000              add [bx+si],al
00003ABC  1400              adc al,0x0
00003ABE  0000              add [bx+si],al
00003AC0  0000              add [bx+si],al
00003AC2  0000              add [bx+si],al
00003AC4  017A52            add [bp+si+0x52],di
00003AC7  0001              add [bx+di],al
00003AC9  7C08              jl 0x3ad3
00003ACB  011B              add [bp+di],bx
00003ACD  0C04              or al,0x4
00003ACF  0488              add al,0x88
00003AD1  0100              add [bx+si],ax
00003AD3  001C              add [si],bl
00003AD5  0000              add [bx+si],al
00003AD7  001C              add [si],bl
00003AD9  0000              add [bx+si],al
00003ADB  00E6              add dh,ah
00003ADD  E1FF              loope 0x3ade
00003ADF  FF20              jmp word [bx+si]
00003AE1  0000              add [bx+si],al
00003AE3  0000              add [bx+si],al
00003AE5  42                inc dx
00003AE6  0E                push cs
00003AE7  08850243          or [di+0x4302],al
00003AEB  0D0559            or ax,0x5905
00003AEE  C50C              lds cx,[si]
00003AF0  0404              add al,0x4
00003AF2  0000              add [bx+si],al
00003AF4  1C00              sbb al,0x0
00003AF6  0000              add [bx+si],al
00003AF8  3C00              cmp al,0x0
00003AFA  0000              add [bx+si],al
00003AFC  E6E1              out 0xe1,al
00003AFE  FF                db 0xff
00003AFF  FF13              call word [bp+di]
00003B01  0000              add [bx+si],al
00003B03  0000              add [bx+si],al
00003B05  42                inc dx
00003B06  0E                push cs
00003B07  08850243          or [di+0x4302],al
00003B0B  0D054C            or ax,0x4c05
00003B0E  C50C              lds cx,[si]
00003B10  0404              add al,0x4
00003B12  0000              add [bx+si],al
00003B14  1C00              sbb al,0x0
00003B16  0000              add [bx+si],al
00003B18  5C                pop sp
00003B19  0000              add [bx+si],al
00003B1B  00D9              add cl,bl
00003B1D  E1FF              loope 0x3b1e
00003B1F  FF6600            jmp word [bp+0x0]
00003B22  0000              add [bx+si],al
00003B24  00420E            add [bp+si+0xe],al
00003B27  08850243          or [di+0x4302],al
00003B2B  0D0502            or ax,0x205
00003B2E  5F                pop di
00003B2F  C50C              lds cx,[si]
00003B31  0404              add al,0x4
00003B33  001C              add [si],bl
00003B35  0000              add [bx+si],al
00003B37  007C00            add [si+0x0],bh
00003B3A  0000              add [bx+si],al
00003B3C  1F                pop ds
00003B3D  E2FF              loop 0x3b3e
00003B3F  FF28              jmp word far [bx+si]
00003B41  0000              add [bx+si],al
00003B43  0000              add [bx+si],al
00003B45  42                inc dx
00003B46  0E                push cs
00003B47  08850243          or [di+0x4302],al
00003B4B  0D0561            or ax,0x6105
00003B4E  C50C              lds cx,[si]
00003B50  0404              add al,0x4
00003B52  0000              add [bx+si],al
00003B54  1C00              sbb al,0x0
00003B56  0000              add [bx+si],al
00003B58  9C                pushfw
00003B59  0000              add [bx+si],al
00003B5B  0027              add [bx],ah
00003B5D  E2FF              loop 0x3b5e
00003B5F  FF8D0000          dec word [di+0x0]
00003B63  0000              add [bx+si],al
00003B65  42                inc dx
00003B66  0E                push cs
00003B67  08850243          or [di+0x4302],al
00003B6B  0D0502            or ax,0x205
00003B6E  86C5              xchg al,ch
00003B70  0C04              or al,0x4
00003B72  0400              add al,0x0
00003B74  2000              and [bx+si],al
00003B76  0000              add [bx+si],al
00003B78  BC0000            mov sp,0x0
00003B7B  0094E2FF          add [si-0x1e],dl
00003B7F  FF                db 0xff
00003B80  7901              jns 0x3b83
00003B82  0000              add [bx+si],al
00003B84  00420E            add [bp+si+0xe],al
00003B87  08850243          or [di+0x4302],al
00003B8B  0D0546            or ax,0x4605
00003B8E  8703              xchg ax,[bp+di]
00003B90  036C01            add bp,[si+0x1]
00003B93  C5                db 0xc5
00003B94  C7                db 0xc7
00003B95  0C04              or al,0x4
00003B97  041C              add al,0x1c
00003B99  0000              add [bx+si],al
00003B9B  00E0              add al,ah
00003B9D  0000              add [bx+si],al
00003B9F  00E9              add cl,ch
00003BA1  E3FF              jcxz 0x3ba2
00003BA3  FF                db 0xff
00003BA4  7801              js 0x3ba7
00003BA6  0000              add [bx+si],al
00003BA8  00420E            add [bp+si+0xe],al
00003BAB  08850243          or [di+0x4302],al
00003BAF  0D0503            or ax,0x305
00003BB2  7101              jno 0x3bb5
00003BB4  C50C              lds cx,[si]
00003BB6  0404              add al,0x4
00003BB8  1C00              sbb al,0x0
00003BBA  0000              add [bx+si],al
00003BBC  0001              add [bx+di],al
00003BBE  0000              add [bx+si],al
00003BC0  41                inc cx
00003BC1  E5FF              in ax,0xff
00003BC3  FF8A0000          dec word [bp+si+0x0]
00003BC7  0000              add [bx+si],al
00003BC9  42                inc dx
00003BCA  0E                push cs
00003BCB  08850243          or [di+0x4302],al
00003BCF  0D0502            or ax,0x205
00003BD2  83C50C            add bp,byte +0xc
00003BD5  0404              add al,0x4
00003BD7  001C              add [si],bl
00003BD9  0000              add [bx+si],al
00003BDB  0020              add [bx+si],ah
00003BDD  0100              add [bx+si],ax
00003BDF  00ABE5FF          add [bp+di-0x1b],ch
00003BE3  FFF3              push bx
00003BE5  0100              add [bx+si],ax
00003BE7  0000              add [bx+si],al
00003BE9  42                inc dx
00003BEA  0E                push cs
00003BEB  08850243          or [di+0x4302],al
00003BEF  0D0503            or ax,0x305
00003BF2  EC                in al,dx
00003BF3  01C5              add bp,ax
00003BF5  0C04              or al,0x4
00003BF7  041C              add al,0x1c
00003BF9  0000              add [bx+si],al
00003BFB  004001            add [bx+si+0x1],al
00003BFE  0000              add [bx+si],al
00003C00  7EE7              jng 0x3be9
00003C02  FF                db 0xff
00003C03  FFC8              dec ax
00003C05  0000              add [bx+si],al
00003C07  0000              add [bx+si],al
00003C09  42                inc dx
00003C0A  0E                push cs
00003C0B  08850243          or [di+0x4302],al
00003C0F  0D0502            or ax,0x205
00003C12  BFC50C            mov di,0xcc5
00003C15  0404              add al,0x4
00003C17  001C              add [si],bl
00003C19  0000              add [bx+si],al
00003C1B  006001            add [bx+si+0x1],ah
00003C1E  0000              add [bx+si],al
00003C20  26E8FFFF          es call word 0x3c23
00003C24  BB0000            mov bx,0x0
00003C27  0000              add [bx+si],al
00003C29  42                inc dx
00003C2A  0E                push cs
00003C2B  08850243          or [di+0x4302],al
00003C2F  0D0502            or ax,0x205
00003C32  B2C5              mov dl,0xc5
00003C34  0C04              or al,0x4
00003C36  0400              add al,0x0
00003C38  1C00              sbb al,0x0
00003C3A  0000              add [bx+si],al
00003C3C  800100            add byte [bx+di],0x0
00003C3F  00C1              add cl,al
00003C41  E8FFFF            call word 0x3c43
00003C44  42                inc dx
00003C45  0100              add [bx+si],ax
00003C47  0000              add [bx+si],al
00003C49  42                inc dx
00003C4A  0E                push cs
00003C4B  08850243          or [di+0x4302],al
00003C4F  0D0503            or ax,0x305
00003C52  3B01              cmp ax,[bx+di]
00003C54  C50C              lds cx,[si]
00003C56  0404              add al,0x4
00003C58  2000              and [bx+si],al
00003C5A  0000              add [bx+si],al
00003C5C  A00100            mov al,[0x1]
00003C5F  00E3              add bl,ah
00003C61  E9FFFF            jmp word 0x3c63
00003C64  45                inc bp
00003C65  0100              add [bx+si],ax
00003C67  0000              add [bx+si],al
00003C69  42                inc dx
00003C6A  0E                push cs
00003C6B  08850243          or [di+0x4302],al
00003C6F  0D0546            or ax,0x4605
00003C72  830303            add word [bp+di],byte +0x3
00003C75  3801              cmp [bx+di],al
00003C77  C5                db 0xc5
00003C78  C3                ret
00003C79  0C04              or al,0x4
00003C7B  0420              add al,0x20
00003C7D  0000              add [bx+si],al
00003C7F  00C4              add ah,al
00003C81  0100              add [bx+si],ax
00003C83  0004              add [si],al
00003C85  EBFF              jmp short 0x3c86
00003C87  FF910200          call word [bx+di+0x2]
00003C8B  0000              add [bx+si],al
00003C8D  42                inc dx
00003C8E  0E                push cs
00003C8F  08850243          or [di+0x4302],al
00003C93  0D0546            or ax,0x4605
00003C96  830303            add word [bp+di],byte +0x3
00003C99  8402              test [bp+si],al
00003C9B  C5                db 0xc5
00003C9C  C3                ret
00003C9D  0C04              or al,0x4
00003C9F  0428              add al,0x28
00003CA1  0000              add [bx+si],al
00003CA3  00E8              add al,ch
00003CA5  0100              add [bx+si],ax
00003CA7  0071ED            add [bx+di-0x13],dh
00003CAA  FF                db 0xff
00003CAB  FF04              inc word [si]
00003CAD  0100              add [bx+si],ax
00003CAF  0000              add [bx+si],al
00003CB1  42                inc dx
00003CB2  0E                push cs
00003CB3  08850243          or [di+0x4302],al
00003CB7  0D054A            or ax,0x4a05
00003CBA  8703              xchg ax,[bp+di]
00003CBC  8604              xchg al,[si]
00003CBE  830502            add word [di],byte +0x2
00003CC1  ED                in ax,dx
00003CC2  C3                ret
00003CC3  42                inc dx
00003CC4  C642C742          mov byte [bp+si-0x39],0x42
00003CC8  C50C              lds cx,[si]
00003CCA  0404              add al,0x4
00003CCC  2800              sub [bx+si],al
00003CCE  0000              add [bx+si],al
00003CD0  1402              adc al,0x2
00003CD2  0000              add [bx+si],al
00003CD4  49                dec cx
00003CD5  EE                out dx,al
00003CD6  FF                db 0xff
00003CD7  FF                db 0xff
00003CD8  EE                out dx,al
00003CD9  0000              add [bx+si],al
00003CDB  0000              add [bx+si],al
00003CDD  42                inc dx
00003CDE  0E                push cs
00003CDF  08850243          or [di+0x4302],al
00003CE3  0D054A            or ax,0x4a05
00003CE6  8703              xchg ax,[bp+di]
00003CE8  8604              xchg al,[si]
00003CEA  830502            add word [di],byte +0x2
00003CED  D7                xlatb
00003CEE  C3                ret
00003CEF  42                inc dx
00003CF0  C642C742          mov byte [bp+si-0x39],0x42
00003CF4  C50C              lds cx,[si]
00003CF6  0404              add al,0x4
00003CF8  1C00              sbb al,0x0
00003CFA  0000              add [bx+si],al
00003CFC  40                inc ax
00003CFD  0200              add al,[bx+si]
00003CFF  000B              add [bp+di],cl
00003D01  EF                out dx,ax
00003D02  FF                db 0xff
00003D03  FF                db 0xff
00003D04  BD0000            mov bp,0x0
00003D07  0000              add [bx+si],al
00003D09  42                inc dx
00003D0A  0E                push cs
00003D0B  08850243          or [di+0x4302],al
00003D0F  0D0502            or ax,0x205
00003D12  B6C5              mov dh,0xc5
00003D14  0C04              or al,0x4
00003D16  0400              add al,0x0
00003D18  1C00              sbb al,0x0
00003D1A  0000              add [bx+si],al
00003D1C  60                pushaw
00003D1D  0200              add al,[bx+si]
00003D1F  00A8EFFF          add [bx+si-0x11],ch
00003D23  FF8C0000          dec word [si+0x0]
00003D27  0000              add [bx+si],al
00003D29  42                inc dx
00003D2A  0E                push cs
00003D2B  08850243          or [di+0x4302],al
00003D2F  0D0502            or ax,0x205
00003D32  85C5              test bp,ax
00003D34  0C04              or al,0x4
00003D36  0400              add al,0x0
00003D38  2C00              sub al,0x0
00003D3A  0000              add [bx+si],al
00003D3C  800200            add byte [bp+si],0x0
00003D3F  0014              add [si],dl
00003D41  F0                lock
00003D42  FF                db 0xff
00003D43  FF                db 0xff
00003D44  DD01              fld qword [bx+di]
00003D46  0000              add [bx+si],al
00003D48  00420E            add [bp+si+0xe],al
00003D4B  08850243          or [di+0x4302],al
00003D4F  0D054A            or ax,0x4a05
00003D52  8703              xchg ax,[bp+di]
00003D54  8604              xchg al,[si]
00003D56  830503            add word [di],byte +0x3
00003D59  C601C3            mov byte [bx+di],0xc3
00003D5C  42                inc dx
00003D5D  C642C742          mov byte [bp+si-0x39],0x42
00003D61  C50C              lds cx,[si]
00003D63  0404              add al,0x4
00003D65  0000              add [bx+si],al
00003D67  001C              add [si],bl
00003D69  0000              add [bx+si],al
00003D6B  00B00200          add [bx+si+0x2],dh
00003D6F  00C1              add cl,al
00003D71  F1                int1
00003D72  FF                db 0xff
00003D73  FF8B0100          dec word [bp+di+0x1]
00003D77  0000              add [bx+si],al
00003D79  42                inc dx
00003D7A  0E                push cs
00003D7B  08850243          or [di+0x4302],al
00003D7F  0D0503            or ax,0x305
00003D82  8401              test [bx+di],al
00003D84  C50C              lds cx,[si]
00003D86  0404              add al,0x4
00003D88  1C00              sbb al,0x0
00003D8A  0000              add [bx+si],al
00003D8C  D002              rol byte [bp+si],1
00003D8E  0000              add [bx+si],al
00003D90  2CF3              sub al,0xf3
00003D92  FF                db 0xff
00003D93  FFC3              inc bx
00003D95  0000              add [bx+si],al
00003D97  0000              add [bx+si],al
00003D99  42                inc dx
00003D9A  0E                push cs
00003D9B  08850243          or [di+0x4302],al
00003D9F  0D0502            or ax,0x205
00003DA2  BCC50C            mov sp,0xcc5
00003DA5  0404              add al,0x4
00003DA7  0001              add [bx+di],al
00003DA9  0000              add [bx+si],al
00003DAB  00803100          add [bx+si+0x31],al
00003DAF  0001              add [bx+di],al
00003DB1  0000              add [bx+si],al
00003DB3  0005              add [di],al
00003DB5  07                pop es
00003DB6  0000              add [bx+si],al
00003DB8  0100              add [bx+si],ax
00003DBA  0000              add [bx+si],al
